Rg	Dos.	Favoris	Vidéo	NOM Prénom	Tps	Cat	Rg/Cat	Rg/S	Equipe	TOD	Swim	Cycle	Run	Swim	Cycle	Run
1	444			Jeremy QUINDOS	02:01:07	SEM	1	1	POISSY TRI	16:44:59	00:24:44	01:03:53	00:32:30	00:24:44	01:03:53	00:32:30
2	1023			Yegor MARTYNENKO	02:01:51	SEM	2	2		16:45:42	00:24:46	01:03:48	00:33:15	00:24:46	01:03:48	00:33:15
3	443			Thomas ANDRE	02:07:42	SEM	3	3		16:51:34	00:25:01	01:08:27	00:34:13	00:25:01	01:08:27	00:34:13
4	341			Come MERCIER	02:09:06	SEM	4	4	ROUEN TRI	16:52:58	00:28:39	01:07:37	00:32:49	00:28:39	01:07:37	00:32:49
5	332			Antoine BOUVET	02:10:42	SEM	5	5	LES PIRANHAS	16:54:34	00:25:18	01:08:06	00:37:17	00:25:18	01:08:06	00:37:17
6	1026			Sebastien PASCAL	02:10:58	SEM	6	6	TRI TOULOUSE METROPOLE	16:54:50	00:27:38	01:08:33	00:34:46	00:27:38	01:08:33	00:34:46
7	334			Guillaume FREBOURG	02:11:37	SEM	7	7	MSA TRI	16:55:28	00:29:56	01:06:21	00:35:18	00:29:56	01:06:21	00:35:18
8	1011			Felicty SHEEDY-RYAN	02:11:47	SEF	1	1	TRI VAL DE GRAY	16:55:39	00:27:45	01:08:50	00:35:11	00:27:45	01:08:50	00:35:11
9	279			Axel DE POORTER	02:11:50	SEM	8	8	ENDURANCE 72 TRI	16:55:41	00:27:48	01:08:40	00:35:21	00:27:48	01:08:40	00:35:21
10	23			Lilian JEGOU	02:12:54	VEM	1	9	SAINT HERBLAIN TRI	16:56:46	00:33:25	01:02:50	00:36:38	00:33:25	01:02:50	00:36:38
11	1030			Emilie MORIER	02:13:19	JUF	1	2	ISSY TRIATHLON	16:57:11	00:27:40	01:08:51	00:36:47	00:27:40	01:08:51	00:36:47
12	546			Remi LOUVEL	02:13:24	SEM	9	10	TEAM CHARENTES TRI	16:57:15	00:31:00	01:05:35	00:36:48	00:31:00	01:05:35	00:36:48
13	302			Teddy CAMBOUT	02:13:47	SEM	10	11	SABLE TRI	16:57:38	00:26:18	01:08:02	00:39:25	00:26:18	01:08:02	00:39:25
14	114			Eric TURBE	02:14:11	SEM	11	12	TRI CLUB NANTAIS	16:58:03	00:28:33	01:08:07	00:37:30	00:28:33	01:08:07	00:37:30
15	255			Nicolas BAYLE	02:14:45	SEM	12	13	LAVAL TRI CLUB	16:58:37	00:30:10	01:06:37	00:37:57	00:30:10	01:06:37	00:37:57
16	951			Antoine SAINT LOUBERT	02:14:50	SEM	13	14	STADE NIORTAIS TRI	16:58:41	00:28:02	01:08:23	00:38:24	00:28:02	01:08:23	00:38:24
17	488			Jonathan MAHE	02:14:56	SEM	14	15	BEST TRI SAINT NAZAIRE	16:58:47	00:30:04	01:06:39	00:38:12	00:30:04	01:06:39	00:38:12
18	191			Maxime GUERET	02:14:58	SEM	15	16	ASPTT ANGERS	16:58:50	00:26:18	01:08:24	00:40:15	00:26:18	01:08:24	00:40:15
19	192			Olivier GUILLAMET	02:14:59	VEM	2	17	ASPTT ANGERS	16:58:51	00:30:11	01:06:28	00:38:19	00:30:11	01:06:28	00:38:19
20	278			Romeo BROUTE	02:15:20	SEM	16	18	ENDURANCE 72 TRI	16:59:12	00:30:20	01:06:10	00:38:48	00:30:20	01:06:10	00:38:48
21	878			Greta HORVATH	02:15:45	SEF	2	3	BRIVE LIMOUSIN TRIATHLON	16:59:37	00:27:52	01:08:51	00:39:01	00:27:52	01:08:51	00:39:01
22	519			Bastien RAVENELLE	02:15:58	JUM	1	19	SAINT AVERTIN SPORTS TRI 37	16:59:49	00:26:03	01:10:41	00:39:13	00:26:03	01:10:41	00:39:13
23	337			Tristan BOSSAERT	02:16:07	SEM	17	20	ROUEN TRI	16:59:59	00:26:19	01:07:55	00:41:52	00:26:19	01:07:55	00:41:52
24	978			Paul LOISEAUX	02:16:36	JUM	2	21	STADE POITEVIN TRI	17:00:28	00:29:43	01:06:46	00:40:07	00:29:43	01:06:46	00:40:07
25	526			Olivier BOGARD	02:17:02	VEM	3	22	RENNES TRI	17:00:53	00:30:09	01:06:53	00:39:59	00:30:09	01:06:53	00:39:59
26	949			Franck TAJIRI	02:17:16	VEM	4	23	VERSAILLES TRI	17:01:07	00:28:03	01:08:51	00:40:20	00:28:03	01:08:51	00:40:20
27	498			Franck GUIRRIEC	02:17:33	VEM	5	24	BEST TRI SAINT NAZAIRE	17:01:24	00:30:20	01:06:26	00:40:46	00:30:20	01:06:26	00:40:46
28	313			Raphael NOEL	02:17:41	SEM	18	25	CLUB DES NAGEURS DE PARIS	17:01:33	00:28:41	01:07:52	00:41:08	00:28:41	01:07:52	00:41:08
29	140			Frederic LELIEVRE	02:17:51	VEM	6	26	TRI COTE D AMOUR	17:01:43	00:33:43	01:07:12	00:36:55	00:33:43	01:07:12	00:36:55
30	326			Louis MOREAU	02:18:06	SEM	19	27	STADE FRANCAIS	17:01:58	00:31:35	01:09:40	00:36:51	00:31:35	01:09:40	00:36:51
31	705			Frederic DIEN	02:18:08	SEM	20	28	MONT SAINT AIGNAN	17:02:00	00:33:00	01:07:58	00:37:09	00:33:00	01:07:58	00:37:09
32	177			Thibaut CULTY	02:18:12	VEM	7	29	ANGERS TRI	17:02:04	00:30:43	01:07:46	00:39:43	00:30:43	01:07:46	00:39:43
33	843			Romain LE CLECH	02:18:38	SEM	21	30	USC TRIATHLON	17:02:30	00:34:05	01:07:12	00:37:21	00:34:05	01:07:12	00:37:21
34	502			Kevin DUREY	02:18:46	SEM	22	31	BEST TRI SAINT NAZAIRE	17:02:38	00:32:46	01:08:06	00:37:52	00:32:46	01:08:06	00:37:52
35	156			Julien TREHIN	02:18:52	SEM	23	32	TRI COTE D AMOUR	17:02:44	00:34:20	01:06:25	00:38:07	00:34:20	01:06:25	00:38:07
36	970			Vincent FORTIN	02:19:01	JUM	3	33	ST JEAN DE MONTS VENDEE TRI ATHLETISME	17:02:53	00:30:17	01:05:56	00:42:47	00:30:17	01:05:56	00:42:47
37	103			Alexandre PLUMEJEAU	02:19:06	SEM	24	34	TRI CLUB NANTAIS	17:02:58	00:32:31	01:06:41	00:39:54	00:32:31	01:06:41	00:39:54
38	181			Frederick SUZANNE	02:19:11	VEM	8	35	ANGERS TRI	17:03:02	00:32:02	01:09:25	00:37:43	00:32:02	01:09:25	00:37:43
39	297			Vincent GRANDJEAN	02:19:18	SEM	25	36	MAT 72  LE MANS ASSOCIATION TRIA	17:03:09	00:34:14	01:06:44	00:38:18	00:34:14	01:06:44	00:38:18
40	227			Benoit GUIMARD	02:19:27	SEM	26	37	TOBESPORT	17:03:19	00:31:32	01:05:20	00:42:34	00:31:32	01:05:20	00:42:34
41	147			Lionel POSTOLLEC	02:19:38	VEM	9	38	TRI COTE D AMOUR	17:03:30	00:31:33	01:09:17	00:38:47	00:31:33	01:09:17	00:38:47
42	198			Vincent VERGER	02:20:15	SEM	27	39	ASPTT ANGERS	17:04:07	00:32:44	01:08:13	00:39:17	00:32:44	01:08:13	00:39:17
43	178			Jerome FOIN	02:20:39	SEM	28	40	ANGERS TRI	17:04:31	00:33:13	01:07:43	00:39:42	00:33:13	01:07:43	00:39:42
44	301			Mickael TISSERANDET	02:20:49	SEM	29	41	MAT 72  LE MANS ASSOCIATION TRIA	17:04:40	00:35:15	01:07:58	00:37:34	00:35:15	01:07:58	00:37:34
45	319			Gregory STEBE	02:20:51	SEM	30	42	PARIS SPORT CLUB	17:04:43	00:28:37	01:08:03	00:44:10	00:28:37	01:08:03	00:44:10
46	433			Cyrille HASCOET	02:20:56	SEM	31	43	TEAM CONCARNEAU TRIATHLON	17:04:48	00:29:49	01:09:18	00:41:48	00:29:49	01:09:18	00:41:48
47	1025			Clement NAULLET	02:21:12	SEM	32	44	ISSY TRI	17:05:03	00:30:55	01:07:41	00:42:35	00:30:55	01:07:41	00:42:35
48	253			Benjamin TRIDON	02:21:24	SEM	33	45	CHATEAU GONTIER TRI	17:05:16	00:35:07	01:07:31	00:38:46	00:35:07	01:07:31	00:38:46
49	496			Yann GUIRRIEC	02:21:27	VEM	10	46	BEST TRI SAINT NAZAIRE	17:05:18	00:31:47	01:09:23	00:40:16	00:31:47	01:09:23	00:40:16
50	439			Thomas BACHELIER	02:21:30	SEM	34	47	TUB	17:05:22	00:34:45	01:08:27	00:38:17	00:34:45	01:08:27	00:38:17
51	690			Quentin ANDRES	02:21:44	SEM	35	48	CLUB RATHELOT	17:05:35	00:34:21	01:08:51	00:38:31	00:34:21	01:08:51	00:38:31
52	101			Cyril PIETRUSZEWSKI	02:21:47	SEM	36	49	TRI CLUB NANTAIS	17:05:39	00:32:22	01:10:43	00:38:41	00:32:22	01:10:43	00:38:41
53	645			Olivier RASSINOUX	02:21:58	VEM	11	50	ASAEC COETQUIDAN TRI	17:05:50	00:34:24	01:08:42	00:38:52	00:34:24	01:08:42	00:38:52
54	991			Francois PRIMOT	02:22:11	VEM	12	51	CLUB YERROIS DE TRI 91	17:06:03	00:31:22	01:09:45	00:41:04	00:31:22	01:09:45	00:41:04
55	1			Sylvain LA NEELLE	02:22:14	VEM	13	52	TRI CLUB NANTAIS CONSEIL DEPARTEMENTAL |	17:06:06	00:30:21	01:10:20	00:41:32	00:30:21	01:10:20	00:41:32
56	955			Sebastien PIVETEAU	02:22:21	VEM	14	53	CHANTONNAY TRI	17:06:12	00:35:36	01:06:55	00:39:49	00:35:36	01:06:55	00:39:49
57	240			Sebastien VOGNE	02:22:25	VEM	15	54	TOBESPORT	17:06:17	00:32:26	01:09:09	00:40:50	00:32:26	01:09:09	00:40:50
58	1019			Gregoire PALLARDY	02:22:28	SEM	37	55	TEAM CHARENTES TRI	17:06:19	00:25:52	01:08:42	00:47:52	00:25:52	01:08:42	00:47:52
59	465			Romain GUIHARD	02:22:32	SEM	38	56	CORMARIS TRI	17:06:24	00:32:17	01:10:36	00:39:37	00:32:17	01:10:36	00:39:37
60	975			Pascal CASSEZ	02:22:32	VEM	16	57	STADE POITEVIN TRI	17:06:24	00:33:10	01:08:00	00:41:22	00:33:10	01:08:00	00:41:22
61	706			Yann DIEN	02:22:36	VEM	17	58	CLUB TRIATHLON LA REUNION	17:06:28	00:32:50	01:08:11	00:41:34	00:32:50	01:08:11	00:41:34
62	30			Ludovic GRUPONT	02:22:40	SEM	39	59	SNLS44	17:06:32	00:35:27	01:07:42	00:39:30	00:35:27	01:07:42	00:39:30
63	394			Maxime GANNE	02:22:41	SEM	40	60	ISSY TRI	17:06:33	00:30:20	01:10:19	00:42:01	00:30:20	01:10:19	00:42:01
64	266			Yohann ESVAN	02:22:47	SEM	41	61	TRIATHLE VANNES	17:06:38	00:34:19	01:08:17	00:40:10	00:34:19	01:08:17	00:40:10
65	167			Cedric LE CORRE	02:22:48	SEM	42	62	TRI VELOCE SAINT SEBASTIEN	17:06:39	00:31:54	01:09:21	00:41:31	00:31:54	01:09:21	00:41:31
66	97			Remy MORISSEAU	02:22:53	VEM	18	63	TRI CLUB NANTAIS	17:06:45	00:31:03	01:10:30	00:41:20	00:31:03	01:10:30	00:41:20
67	500			Mathieu GUERIN	02:22:54	VEM	19	64	BEST TRI SAINT NAZAIRE	17:06:46	00:34:33	01:08:07	00:40:13	00:34:33	01:08:07	00:40:13
68	285			Ulrich AUDOUIN	02:22:58	SEM	43	65	MAT 72  LE MANS ASSOCIATION TRIA	17:06:50	00:35:24	01:07:52	00:39:41	00:35:24	01:07:52	00:39:41
69	996			Fabrice TINAT	02:23:01	VEM	20	66	CLUB YERROIS DE TRI 91	17:06:52	00:35:06	01:08:08	00:39:46	00:35:06	01:08:08	00:39:46
70	929			David COLAT	02:23:07	SEM	44	67	TRI CLUB ST QUENTIN EN YVEL	17:06:59	00:35:10	01:07:54	00:40:02	00:35:10	01:07:54	00:40:02
71	419			Julien GUILLOIS	02:23:10	SEM	45	68	353 TRIATHLON CLUB	17:07:01	00:33:10	01:09:48	00:40:11	00:33:10	01:09:48	00:40:11
72	803			Arnaud DELAETER	02:23:13	SEM	46	69	LONDRES	17:07:05	00:34:39	01:08:06	00:40:27	00:34:39	01:08:06	00:40:27
73	72			Nicolas GENESTINE	02:23:14	SEM	47	70	TRI CLUB NANTAIS	17:07:05	00:35:30	01:07:11	00:40:32	00:35:30	01:07:11	00:40:32
74	106			Clement RASSELET	02:23:14	SEM	48	71	TRI CLUB NANTAIS	17:07:06	00:35:25	01:07:15	00:40:33	00:35:25	01:07:15	00:40:33
75	86			Fabien LATINIER	02:23:21	SEM	49	72	TRI CLUB NANTAIS	17:07:12	00:35:30	01:07:01	00:40:49	00:35:30	01:07:01	00:40:49
76	137			Frederic LAIR	02:23:21	SEM	50	73	TRI COTE D AMOUR	17:07:12	00:34:46	01:07:27	00:41:07	00:34:46	01:07:27	00:41:07
77	83			Jean-Vincent JEMELEN	02:23:25	SEM	51	74	TRI CLUB NANTAIS	17:07:17	00:34:12	01:08:54	00:40:18	00:34:12	01:08:54	00:40:18
78	463			Arnaud PERQUIA	02:23:32	VEM	21	75	CORMARIS TRI	17:07:23	00:34:18	01:08:21	00:40:52	00:34:18	01:08:21	00:40:52
79	259			Lenaic GOUAILLIER	02:23:52	SEM	52	76	LAVAL TRI CLUB	17:07:43	00:32:21	01:09:14	00:42:16	00:32:21	01:09:14	00:42:16
80	91			Bastien LESCOUBLET	02:23:56	SEM	53	77	TRI CLUB NANTAIS	17:07:48	00:35:17	01:07:51	00:40:48	00:35:17	01:07:51	00:40:48
81	159			Arnaud DELROT	02:24:11	VEM	22	78	TRI SPORT COUERONNAIS	17:08:03	00:32:32	01:09:02	00:42:36	00:32:32	01:09:02	00:42:36
82	269			Thomas LE NY	02:24:15	SEM	54	79	TRIATHLE VANNES	17:08:07	00:35:00	01:07:50	00:41:24	00:35:00	01:07:50	00:41:24
83	440			Vincent HARNOIS	02:24:17	SEM	55	80	TUB	17:08:08	00:30:53	01:10:35	00:42:47	00:30:53	01:10:35	00:42:47
84	254			Fabien TERMEAU	02:24:23	SEM	56	81	ERNEENNE SPORTS TRI	17:08:14	00:35:06	01:07:31	00:41:45	00:35:06	01:07:31	00:41:45
85	535			Sylvere MALABOEUF	02:24:24	VEM	23	82	TRIATH CLUB ROYANNAIS	17:08:15	00:34:12	01:08:24	00:41:46	00:34:12	01:08:24	00:41:46
86	281			Gregory PIPARD	02:24:40	SEM	57	83	ENDURANCE 72 TRI	17:08:32	00:34:52	01:08:19	00:41:28	00:34:52	01:08:19	00:41:28
87	848			Tristan DAESCHNER	02:24:52	SEM	58	84	PARIS	17:08:44	00:32:11	01:10:41	00:42:00	00:32:11	01:10:41	00:42:00
88	850			Landry GERVOT	02:25:08	SEM	59	85	USA TRIATHLON	17:08:59	00:33:30	01:08:13	00:43:24	00:33:30	01:08:13	00:43:24
89	307			Antoine BLANDEL	02:25:11	SEM	60	86	PASSY MONT BLANC TRI	17:09:03	00:35:03	01:07:42	00:42:25	00:35:03	01:07:42	00:42:25
90	52			Quentin BEAUMER	02:25:13	SEM	61	87	TRI CLUB NANTAIS	17:09:04	00:34:03	01:08:45	00:42:24	00:34:03	01:08:45	00:42:24
91	932			Benoit ROCHELLE	02:25:14	SEM	62	88	TRI CLUB ST QUENTIN EN YVEL	17:09:05	00:33:28	01:09:29	00:42:16	00:33:28	01:09:29	00:42:16
92	133			Laura GUYON	02:25:20	SEF	3	4	TRI COTE D AMOUR	17:09:12	00:33:03	01:09:32	00:42:45	00:33:03	01:09:32	00:42:45
93	100			Stephane PAPIN	02:25:22	VEM	24	89	TRI CLUB NANTAIS	17:09:13	00:33:58	01:08:24	00:42:59	00:33:58	01:08:24	00:42:59
94	989			Olivier LOUCHART	02:25:22	SEM	63	90	CLUB YERROIS DE TRI 91	17:09:14	00:32:08	01:09:00	00:44:13	00:32:08	01:09:00	00:44:13
95	263			Ewann GILBERT	02:25:41	JUM	4	91	PLOEMEUR TRI	17:09:32	00:30:27	01:10:57	00:44:15	00:30:27	01:10:57	00:44:15
96	624			Nicolas COUSIN	02:25:44	VEM	25	92	LES TRITONS CONDEENS	17:09:36	00:34:39	01:08:21	00:42:44	00:34:39	01:08:21	00:42:44
97	248			Jimmy DENUAULT	02:25:46	SEM	64	93	CHATEAU GONTIER TRI	17:09:37	00:36:15	01:09:45	00:39:45	00:36:15	01:09:45	00:39:45
98	142			Nicolas MOINEAU	02:25:46	SEM	65	94	TRI COTE D AMOUR	17:09:38	99:99:99	99:99:99	02:25:46	99:99:99	99:99:99	02:25:46
99	129			Jean GOILARD	02:25:56	SEM	66	95	TRI COTE D AMOUR	17:09:47	00:38:08	01:08:17	00:39:31	00:38:08	01:08:17	00:39:31
100	310			Anthony CANGE	02:25:59	SEM	67	96	CLUB DES NAGEURS DE PARIS	17:09:51	00:32:55	01:08:22	00:44:41	00:32:55	01:08:22	00:44:41
101	315			Pierrick VIDAL	02:26:01	SEM	68	97	CLUB DES NAGEURS DE PARIS	17:09:53	00:28:32	01:07:54	00:49:34	00:28:32	01:07:54	00:49:34
102	273			Ghislain LECLERCQ	02:26:17	VEM	26	98	WASQUEHAL TRI	17:10:09	00:35:19	01:11:08	00:39:50	00:35:19	01:11:08	00:39:50
103	966			Mickael NICOLAS	02:26:22	SEM	69	99	LES HERBIERS VENDEE TRI	17:10:14	00:33:15	01:08:31	00:44:35	00:33:15	01:08:31	00:44:35
104	807			Guillaume CRESPEL	02:26:23	SEM	70	100	ORVAULT	17:10:15	00:31:56	01:15:02	00:39:25	00:31:56	01:15:02	00:39:25
105	838			Francois BRIE	02:26:28	SEM	71	101	AL-KO TRIATHLON AUGSBURG	17:10:19	00:30:45	01:14:33	00:41:09	00:30:45	01:14:33	00:41:09
106	639			Philippe CONAN	02:26:31	VEM	27	102	BROCELIANDE TRI	17:10:22	00:35:26	01:07:38	00:43:26	00:35:26	01:07:38	00:43:26
107	453			Corentin OGER	02:26:32	SEM	72	103	PAYS D ANCENIS CLUB TRI 44	17:10:23	00:35:50	01:11:04	00:39:37	00:35:50	01:11:04	00:39:37
108	640			Erwan CHOUAN	02:26:37	SEM	73	104	BROCELIANDE TRI	17:10:29	00:34:56	01:10:48	00:40:53	00:34:56	01:10:48	00:40:53
109	272			Pascal BILY	02:26:40	VEM	28	105	WASQUEHAL TRI	17:10:32	00:34:49	01:08:10	00:43:41	00:34:49	01:08:10	00:43:41
110	258			Jean Philippe DUVAL	02:26:48	VEM	29	106	LAVAL TRI CLUB	17:10:39	00:32:55	01:09:46	00:44:06	00:32:55	01:09:46	00:44:06
111	431			Gautier JENART	02:26:51	SEM	74	107	TC JOUE LES TOURS	17:10:43	00:34:11	01:08:47	00:43:53	00:34:11	01:08:47	00:43:53
112	125			Joanne DUVAL	02:26:52	SEF	4	5	TRI COTE D AMOUR	17:10:44	00:34:26	01:08:26	00:44:00	00:34:26	01:08:26	00:44:00
113	164			Nicolas DANGERARD	02:26:53	VEM	30	108	TRI VELOCE SAINT SEBASTIEN	17:10:44	00:34:51	01:08:01	00:43:59	00:34:51	01:08:01	00:43:59
114	460			Frederic LEVEILLE	02:27:04	VEM	31	109	NANTES TRI	17:10:56	00:37:39	01:09:10	00:40:14	00:37:39	01:09:10	00:40:14
115	134			Charly JOSSO	02:27:17	SEM	75	110	TRI COTE D AMOUR	17:11:09	00:30:49	01:10:55	00:45:32	00:30:49	01:10:55	00:45:32
116	155			Tristan THEBAULT	02:27:27	VEM	32	111	TRI COTE D AMOUR	17:11:19	00:31:52	01:11:04	00:44:31	00:31:52	01:11:04	00:44:31
117	402			Simon GUILLOUX	02:27:30	SEM	76	112	LEVALLOIS TRI	17:11:22	00:32:52	01:10:04	00:44:33	00:32:52	01:10:04	00:44:33
118	646			Stephane YGONIN	02:27:36	VEM	33	113	AS ENERGY 91 TRI	17:11:28	00:35:03	01:08:20	00:44:13	00:35:03	01:08:20	00:44:13
119	659			Thierry COLLET	02:27:40	VEM	34	114	TRIATHLON CLUB LOCMINE	17:11:31	00:41:40	01:09:21	00:36:37	00:41:40	01:09:21	00:36:37
120	930			Herve LAMARRE	02:27:40	VEM	35	115	TRI CLUB ST QUENTIN EN YVEL	17:11:32	00:33:42	01:10:06	00:43:52	00:33:42	01:10:06	00:43:52
121	387			Michel POZZO DI BORGO	02:27:44	VEM	36	116	COURBEVOIE TRI	17:11:36	00:33:40	01:09:53	00:44:10	00:33:40	01:09:53	00:44:10
122	520			Romain PITON	02:27:57	SEM	77	117	SAINT AVERTIN SPORTS TRI 37	17:11:49	00:35:21	01:11:35	00:41:00	00:35:21	01:11:35	00:41:00
123	219			Fabien DEGAS	02:27:58	VEM	37	118	TOBESPORT	17:11:50	00:35:40	01:11:08	00:41:09	00:35:40	01:11:08	00:41:09
124	760			Fabrice DELAETER	02:27:58	SEM	78	119	PARIS	17:11:50	00:35:23	01:12:45	00:39:50	00:35:23	01:12:45	00:39:50
125	166			Thibault DUPONT	02:28:15	SEM	79	120	TRI VELOCE SAINT SEBASTIEN	17:12:07	00:39:02	01:08:36	00:40:35	00:39:02	01:08:36	00:40:35
126	115			Ludovic VERDIER	02:28:19	VEM	38	121	TRI CLUB NANTAIS	17:12:11	00:36:20	01:09:51	00:42:07	00:36:20	01:09:51	00:42:07
127	290			Pierre Yves BUARD	02:28:19	SEM	80	122	MAT 72  LE MANS ASSOCIATION TRIA	17:12:11	00:36:22	01:10:32	00:41:24	00:36:22	01:10:32	00:41:24
128	270			Damien LECHEVALIER	02:28:27	SEM	81	123	TRIATHLE VANNES	17:12:19	00:39:12	01:09:49	00:39:25	00:39:12	01:09:49	00:39:25
129	537			Laurent SOYER	02:28:48	VEM	39	124	LA ROCHELLE TRI	17:12:40	00:35:45	01:12:06	00:40:56	00:35:45	01:12:06	00:40:56
130	132			Stephane GUILLOU	02:28:54	VEM	40	125	TRI COTE D AMOUR	17:12:45	00:32:30	01:10:22	00:46:00	00:32:30	01:10:22	00:46:00
131	416			Loic DUMUSOY	02:29:04	VEM	41	126	VALLEE DE MONTMORENCY TRI	17:12:56	00:35:21	01:07:19	00:46:23	00:35:21	01:07:19	00:46:23
132	105			Alexandre RACOUET	02:29:11	SEM	82	127	TRI CLUB NANTAIS	17:13:03	00:33:49	01:09:51	00:45:30	00:33:49	01:09:51	00:45:30
133	1016			Simon DOS SANTOS	02:29:12	SEM	83	128	SAINTES TRIATHLON	17:13:03	00:39:44	01:10:16	00:39:11	00:39:44	01:10:16	00:39:11
134	904			Nicolas BEAUNIEUX	02:29:13	VEM	42	129	TRI ATLANTIQUE CARQUEFOU MANITOU |	17:13:05	00:35:11	01:08:03	00:45:59	00:35:11	01:08:03	00:45:59
135	268			Valentin GRAVOT	02:29:15	SEM	84	130	TRIATHLE VANNES	17:13:07	00:34:21	01:08:48	00:46:05	00:34:21	01:08:48	00:46:05
136	84			Florent JOLIVET	02:29:16	SEM	85	131	TRI CLUB NANTAIS	17:13:08	00:35:57	01:10:52	00:42:26	00:35:57	01:10:52	00:42:26
137	153			Mikael THEAUD	02:29:26	VEM	43	132	TRI COTE D AMOUR	17:13:17	00:36:48	01:10:19	00:42:18	00:36:48	01:10:19	00:42:18
138	424			Clement CHANEL	02:29:30	SEM	86	133	ASTC THALES	17:13:22	00:40:03	01:10:54	00:38:33	00:40:03	01:10:54	00:38:33
139	960			Stephane PANTAIS	02:29:31	VEM	44	134	LA ROCHE VENDEE TRIATHLON	17:13:23	00:38:27	01:09:20	00:41:44	00:38:27	01:09:20	00:41:44
140	602			Antoine GODET	02:29:33	SEM	87	135	RACING MULTI ATHLON	17:13:24	00:31:30	01:11:42	00:46:20	00:31:30	01:11:42	00:46:20
141	562			Bertrand TRUFFANDIER	02:29:35	SEM	88	136	WILD TEAM TRI	17:13:27	00:37:03	01:11:32	00:40:58	00:37:03	01:11:32	00:40:58
142	180			Frederic BROSSARD	02:29:36	VEM	45	137	TRI CLUB NANTAIS	17:13:27	00:36:40	01:11:11	00:41:44	00:36:40	01:11:11	00:41:44
143	689			Matthieu COUTURIER	02:29:36	SEM	89	138	NANTES	17:13:28	00:31:00	01:10:11	00:48:25	00:31:00	01:10:11	00:48:25
144	452			Frederic PROVENT	02:29:40	SEM	90	139	PAYS D ANCENIS CLUB TRI 44	17:13:32	00:37:57	01:10:06	00:41:36	00:37:57	01:10:06	00:41:36
145	329			Charles KOBRYNE	02:29:42	SEM	91	140	UNION ATHLETIQUE SOCIETE GENERALE	17:13:33	00:34:36	01:10:55	00:44:10	00:34:36	01:10:55	00:44:10
146	61			Emmanuel CAVELLEC	02:29:42	VEM	46	141	TRI CLUB NANTAIS	17:13:34	00:35:58	01:10:51	00:42:51	00:35:58	01:10:51	00:42:51
147	743			Benjamin SIOU	02:29:43	SEM	92	142	LE MANS	17:13:35	00:42:10	01:10:33	00:36:59	00:42:10	01:10:33	00:36:59
148	245			Christian BEAUDOIN	02:29:43	VEM	47	143	CHATEAU GONTIER TRI	17:13:35	00:35:39	01:10:35	00:43:28	00:35:39	01:10:35	00:43:28
149	487			Guillaume PERRAY	02:29:44	SEM	93	144	BEST TRI SAINT NAZAIRE	17:13:36	00:34:08	01:14:30	00:41:04	00:34:08	01:14:30	00:41:04
150	385			Ludovik ROCQUET	02:29:48	SEM	94	145	COURBEVOIE TRI	17:13:39	00:35:48	01:11:08	00:42:50	00:35:48	01:11:08	00:42:50
151	775			Christophe MAIRE	02:29:50	SEM	95	146	PARIS	17:13:41	00:35:22	01:10:05	00:44:22	00:35:22	01:10:05	00:44:22
152	27			Antonin MENARD	02:29:56	SEM	96	147	SAINT HERBLAIN TRI	17:13:48	00:33:22	01:12:01	00:44:33	00:33:22	01:12:01	00:44:33
153	356			Alexandre GUYON	02:29:57	VEM	48	148	SAINTE GENEVIEVE TRI	17:13:48	00:36:12	01:11:48	00:41:56	00:36:12	01:11:48	00:41:56
154	31			Thomas LEBLOIS	02:29:57	VEM	49	149	SNLS44	17:13:49	00:34:45	01:11:13	00:43:59	00:34:45	01:11:13	00:43:59
155	942			Freddy BARATON	02:29:59	SEM	97	150	VERSAILLES TRI	17:13:51	00:38:01	01:12:23	00:39:34	00:38:01	01:12:23	00:39:34
156	69			Florent FABRE	02:30:03	SEM	98	151	TRI CLUB NANTAIS	17:13:54	00:36:35	01:11:38	00:41:49	00:36:35	01:11:38	00:41:49
157	473			Steve BANCHAREL	02:30:06	SEM	99	152	BOUGUENAIS CLUB TRI	17:13:58	00:32:28	01:09:19	00:48:18	00:32:28	01:09:19	00:48:18
158	508			Christophe VOURCH	02:30:07	VEM	50	153	ATHLETIC RETZ SUD LAC	17:13:59	00:38:55	01:10:43	00:40:28	00:38:55	01:10:43	00:40:28
159	821			Geoffroy GICQUEAU	02:30:08	SEM	100	154	USA TRIATHLON	17:14:00	00:36:26	01:10:01	00:43:40	00:36:26	01:10:01	00:43:40
160	386			Thomas POZZO DI BORGO	02:30:08	SEM	101	155	COURBEVOIE TRI	17:14:00	00:31:46	01:09:48	00:48:34	00:31:46	01:09:48	00:48:34
161	74			Raphael GROSS	02:30:09	SEM	102	156	TRI CLUB NANTAIS	17:14:01	00:32:27	01:14:43	00:42:58	00:32:27	01:14:43	00:42:58
162	518			Tanguy RAVENELLE	02:30:12	SEM	103	157	SAINT AVERTIN SPORTS TRI 37	17:14:04	00:30:49	01:10:50	00:48:32	00:30:49	01:10:50	00:48:32
163	213			Jean CAUSSIN	02:30:13	SEM	104	158	TOBESPORT	17:14:05	00:36:20	01:10:49	00:43:04	00:36:20	01:10:49	00:43:04
164	828			Pierre Louis DORLANNE	02:30:13	SEM	105	159	COURBEVOIE	17:14:05	00:33:58	01:12:06	00:44:09	00:33:58	01:12:06	00:44:09
165	38			Francois GALISSON	02:30:15	VEM	51	160	TRI ATLANTIQUE CARQUEFOU	17:14:06	00:36:09	01:10:58	00:43:07	00:36:09	01:10:58	00:43:07
166	20			Antoine FERRON	02:30:20	SEM	106	161	SAINT HERBLAIN TRI	17:14:11	00:36:21	01:11:59	00:41:59	00:36:21	01:11:59	00:41:59
167	524			Guillaume LENOEL	02:30:22	VEM	52	162	RENNES TRI	17:14:14	00:34:48	01:11:15	00:44:18	00:34:48	01:11:15	00:44:18
168	667			Julien MARANDAT	02:30:23	SEM	107	163	CHARTRES METROPOLE TRIATHLON	17:14:14	00:33:35	01:09:54	00:46:53	00:33:35	01:09:54	00:46:53
169	173			David TIREL	02:30:24	VEM	53	164	TRI VELOCE SAINT SEBASTIEN	17:14:16	00:35:23	01:10:03	00:44:57	00:35:23	01:10:03	00:44:57
170	284			Anthony VIOT	02:30:34	VEM	54	165	ENDURANCE 72 TRI	17:14:26	00:36:12	01:10:43	00:43:38	00:36:12	01:10:43	00:43:38
171	1009			Nicolas LAMY	02:30:36	VEM	55	166	COUERON	17:14:28	00:31:26	01:13:55	00:45:14	00:31:26	01:13:55	00:45:14
172	512			Stephane JOURDREN	02:30:54	SEM	108	167	ATHLETIC RETZ SUD LAC	17:14:46	00:40:42	01:09:16	00:40:55	00:40:42	01:09:16	00:40:55
173	664			Tony MENAGER	02:30:56	VEM	56	168	CNP REDON	17:14:48	00:35:44	01:11:16	00:43:56	00:35:44	01:11:16	00:43:56
174	589			Matthieu TOURNEUR	02:30:59	SEM	109	169	SO HOUILLES TRI	17:14:51	00:31:02	01:14:35	00:45:21	00:31:02	01:14:35	00:45:21
175	85			Adrien JUMEAUX	02:31:04	SEM	110	170	TRI CLUB NANTAIS	17:14:56	00:37:55	01:10:13	00:42:55	00:37:55	01:10:13	00:42:55
176	299			Pascal PICART	02:31:11	VEM	57	171	MAT 72  LE MANS ASSOCIATION TRIA	17:15:02	00:31:30	01:10:22	00:49:17	00:31:30	01:10:22	00:49:17
177	456			Frederic GAILLARD	02:31:13	VEM	58	172	PAYS D ANCENIS CLUB TRI 44	17:15:05	00:35:05	01:11:26	00:44:42	00:35:05	01:11:26	00:44:42
178	786			Sylvain LE PENNEC	02:31:15	VEM	59	173	LE LOROUX-BOTTEREAU	17:15:07	00:36:04	01:10:39	00:44:31	00:36:04	01:10:39	00:44:31
179	812			Jeremie CLOS	02:31:23	SEM	111	174	PARIS	17:15:15	00:31:07	01:10:38	00:49:37	00:31:07	01:10:38	00:49:37
180	630			Johann FONTAINE	02:31:33	VEM	60	175	CLUB BPC	17:15:24	00:36:03	01:10:54	00:44:35	00:36:03	01:10:54	00:44:35
181	368			Vincent O LENOIR	02:31:37	SEM	112	176	ATHLETIC CLUB BOULOGNE BILLANCOURT	17:15:29	00:35:20	01:14:22	00:41:54	00:35:20	01:14:22	00:41:54
182	404			Christopher LANDRY	02:31:38	VEM	61	177	LEVALLOIS TRI	17:15:30	00:40:26	01:11:03	00:40:09	00:40:26	01:11:03	00:40:09
183	781			Etienne SIMON	02:31:39	SEM	113	178	SAINT-SEBASTIEN-SUR-LOIRE	17:15:31	00:37:43	01:10:38	00:43:17	00:37:43	01:10:38	00:43:17
184	954			Sebastien BLUTEAU	02:31:42	SEM	114	179	CHANTONNAY TRI	17:15:34	00:36:20	01:10:17	00:45:05	00:36:20	01:10:17	00:45:05
185	339			Nicolas BELLEST	02:31:46	VEM	62	180	ROUEN TRIATHLON	17:15:37	00:32:53	01:14:00	00:44:52	00:32:53	01:14:00	00:44:52
186	42			Fabrice LUCAS	02:31:48	VEM	63	181	TRI ATLANTIQUE CARQUEFOU	17:15:40	00:35:02	01:11:54	00:44:51	00:35:02	01:11:54	00:44:51
187	316			Marc BRETON	02:31:50	SEM	115	182	PARIS SPORT CLUB	17:15:42	00:39:05	01:11:15	00:41:29	00:39:05	01:11:15	00:41:29
188	618			Tanguy GESTIN	02:31:51	SEM	116	183	MONTFORT MERE TRI	17:15:42	00:41:39	01:10:16	00:39:54	00:41:39	01:10:16	00:39:54
189	550			Jerome LESACHEY	02:31:51	VEM	64	184	CAEN TRI	17:15:43	00:35:58	01:11:14	00:44:38	00:35:58	01:11:14	00:44:38
190	995			Pierre SALIGNAT	02:31:53	VEM	65	185	CLUB YERROIS DE TRI 91	17:15:45	00:36:54	01:11:08	00:43:50	00:36:54	01:11:08	00:43:50
191	952			Didier LEFEUVRE	02:32:03	VEM	66	186	TCG 79 PARTHENAY	17:15:55	00:31:08	01:12:40	00:48:15	00:31:08	01:12:40	00:48:15
192	382			Eric NEIRINCKX	02:32:08	VEM	67	187	COURBEVOIE TRI	17:16:00	00:35:57	01:10:59	00:45:11	00:35:57	01:10:59	00:45:11
193	936			Stephane LUCIANI	02:32:16	VEM	68	188	VELIZY TRI	17:16:08	00:34:46	01:12:15	00:45:14	00:34:46	01:12:15	00:45:14
194	210			Bruno BROCHET	02:32:18	VEM	69	189	TOBESPORT	17:16:10	00:36:50	01:11:27	00:43:59	00:36:50	01:11:27	00:43:59
195	184			Gildas MALECOT	02:32:19	VEM	70	190	ANJOU TRIATHLON TRELAZE	17:16:10	00:35:07	01:10:30	00:46:40	00:35:07	01:10:30	00:46:40
196	39			Patrick GARNIER	02:32:22	VEM	71	191	TRI ATLANTIQUE CARQUEFOU	17:16:14	00:36:59	01:10:48	00:44:34	00:36:59	01:10:48	00:44:34
197	1020			Claire HALOPEAU	02:32:23	SEF	5	6		17:16:14	00:34:06	01:15:15	00:43:01	00:34:06	01:15:15	00:43:01
198	934			Gilles JAUDOIN	02:32:29	VEM	72	192	VELIZY TRI	17:16:21	00:35:10	01:11:46	00:45:32	00:35:10	01:11:46	00:45:32
199	893			Enguerrand BERTHOLET	02:32:30	SEM	117	193	DIJON SINGLETRACK	17:16:21	00:41:13	01:12:01	00:39:14	00:41:13	01:12:01	00:39:14
200	77			Christophe HARAT	02:32:33	VEM	73	194	TRI CLUB NANTAIS	17:16:25	00:35:59	01:11:29	00:45:04	00:35:59	01:11:29	00:45:04
201	485			Pascal ROUGERON	02:32:38	VEM	74	195	BEST TRI SAINT NAZAIRE	17:16:30	00:34:10	01:13:48	00:44:39	00:34:10	01:13:48	00:44:39
202	81			Cedric HY	02:32:44	VEM	75	196	TRI CLUB NANTAIS	17:16:35	00:32:36	01:15:48	00:44:19	00:32:36	01:15:48	00:44:19
203	813			Hugo DOMENECH	02:32:50	SEM	118	197	PARIS	17:16:42	00:32:39	01:14:08	00:46:03	00:32:39	01:14:08	00:46:03
204	434			Olivier DUAULT	02:32:57	VEM	76	198	CLUB DE TRIATHLON DE LOCMINE	17:16:49	00:32:41	01:14:06	00:46:10	00:32:41	01:14:06	00:46:10
205	139			Julien LE PRIOL	02:33:01	SEM	119	199	TRI COTE D AMOUR	17:16:53	00:38:39	01:09:14	00:45:08	00:38:39	01:09:14	00:45:08
206	277			Stephane BEAU	02:33:04	VEM	77	200	ENDURANCE 72 TRI	17:16:56	00:40:10	01:11:11	00:41:43	00:40:10	01:11:11	00:41:43
207	303			Nicolas FOUSSIER	02:33:07	SEM	120	201	SABLE TRI	17:16:59	00:36:04	01:12:23	00:44:40	00:36:04	01:12:23	00:44:40
208	620			Jocelyn LEMOINE	02:33:27	SEM	121	202	LORIENT TRI FLK	17:17:18	00:37:59	01:12:58	00:42:28	00:37:59	01:12:58	00:42:28
209	906			Emmanuel MAHE	02:33:37	SEM	122	203	TOBESPORT MANITOU |	17:17:28	00:38:31	01:14:30	00:40:36	00:38:31	01:14:30	00:40:36
210	1015			Patrice BICHE	02:33:37	VEM	78	204	SEGRE ESSHA TRI	17:17:29	00:37:57	01:09:15	00:46:24	00:37:57	01:09:15	00:46:24
211	93			Aurelien LETORT	02:33:40	SEM	123	205	TRI CLUB NANTAIS AURÚLIEN CLUB LETORT	17:17:32	00:41:26	01:11:21	00:40:52	00:41:26	01:11:21	00:40:52
212	1100			Jerome TANT	02:33:58	VEM	79	206	MAT 72  LE MANS ASSOCIATION TRIA	17:17:49	00:35:32	01:22:21	00:36:04	00:35:32	01:22:21	00:36:04
213	92			Nicolas LETERRIER	02:34:00	VEM	80	207	TRI CLUB NANTAIS	17:17:52	00:40:36	01:10:58	00:42:25	00:40:36	01:10:58	00:42:25
214	856			Christophe YBERT	02:34:08	SEM	124	208	USA TRIATHLON	17:18:00	00:37:41	01:10:51	00:45:35	00:37:41	01:10:51	00:45:35
215	237			Jerome ROUSSEAU	02:34:09	VEM	81	209	TOBESPORT	17:18:01	00:38:14	01:12:17	00:43:37	00:38:14	01:12:17	00:43:37
216	835			Arnaud BURELLER	02:34:11	VEM	82	210	USA TRIATHLON	17:18:02	00:30:55	01:14:39	00:48:35	00:30:55	01:14:39	00:48:35
217	984			Gregoire GEFFRAY	02:34:13	SEM	125	211	CLUB YERROIS DE TRI 91	17:18:04	00:30:48	01:12:46	00:50:38	00:30:48	01:12:46	00:50:38
218	234			Stephan PRUVREL	02:34:13	VEM	83	212	TOBESPORT	17:18:05	00:36:51	01:11:09	00:46:12	00:36:51	01:11:09	00:46:12
219	925			Thomas POUVREAU	02:34:15	SEM	126	213	POISSY TRI	17:18:06	00:31:41	01:14:45	00:47:47	00:31:41	01:14:45	00:47:47
220	946			Anthony LALOUA	02:34:17	SEM	127	214	VERSAILLES TRI	17:18:09	00:37:19	01:14:35	00:42:21	00:37:19	01:14:35	00:42:21
221	462			Jose AUBRY	02:34:18	VEM	84	215	NANTES TRI	17:18:10	00:34:18	01:12:49	00:47:11	00:34:18	01:12:49	00:47:11
222	128			Cyril GERARD	02:34:20	SEM	128	216	TRI COTE D AMOUR	17:18:11	00:36:07	01:13:41	00:44:30	00:36:07	01:13:41	00:44:30
223	491			Stephane LE CALVE	02:34:21	VEM	85	217	BEST TRI SAINT NAZAIRE	17:18:13	00:39:43	01:11:15	00:43:22	00:39:43	01:11:15	00:43:22
224	346			Maxime RIQUIER	02:34:23	SEM	129	218	ROUEN	17:18:15	00:28:51	01:19:26	00:46:05	00:28:51	01:19:26	00:46:05
225	527			Damien BELAIR	02:34:26	SEM	130	219	RENNES TRI	17:18:18	00:35:25	01:16:50	00:42:10	00:35:25	01:16:50	00:42:10
226	762			Ronan LAMENISOT	02:34:32	SEM	131	220	SAPEURS-POMPIERS DE DIEPPE 76	17:18:23	00:36:54	01:12:55	00:44:42	00:36:54	01:12:55	00:44:42
227	628			Joffrey BOURLAND	02:34:34	SEM	132	221	HAC TRI	17:18:26	00:38:55	01:11:39	00:43:59	00:38:55	01:11:39	00:43:59
228	1004			Jacky LE PINSEC	02:34:37	VEM	86	222	BRAIN-SUR-L AUTHION	17:18:29	00:34:07	01:12:04	00:48:25	00:34:07	01:12:04	00:48:25
229	67			Romain DUGAS	02:34:46	SEM	133	223	TRI CLUB NANTAIS	17:18:38	00:38:16	01:12:37	00:43:53	00:38:16	01:12:37	00:43:53
230	731			Alain TERMINET	02:34:47	VEM	87	224	HERBLAY	17:18:39	00:38:54	01:15:17	00:40:35	00:38:54	01:15:17	00:40:35
231	884			Lucie KOPIEC	02:34:57	SEF	6	7	VMT	17:18:49	00:34:25	01:15:01	00:45:30	00:34:25	01:15:01	00:45:30
232	875			Julien HENRIQUES	02:35:00	SEM	134	225	ASNIERES-SUR-SEINE	17:18:52	00:37:42	01:17:15	00:40:02	00:37:42	01:17:15	00:40:02
233	513			Yann GANACHAUD	02:35:00	VEM	88	226	ATHLETIC RETZ SUD LAC	17:18:52	00:39:37	01:10:33	00:44:49	00:39:37	01:10:33	00:44:49
234	264			Yvon LE GALL	02:35:14	VEM	89	227	PLOEMEUR TRI	17:19:06	00:33:47	01:09:08	00:52:19	00:33:47	01:09:08	00:52:19
235	752			Nicolas PORCHER	02:35:25	VEM	90	228	LAVAL	17:19:16	00:39:24	01:15:29	00:40:30	00:39:24	01:15:29	00:40:30
236	847			Clement BERTON	02:35:28	SEM	135	229	TRIATHLON CLUB TORCY	17:19:20	00:33:49	01:12:18	00:49:20	00:33:49	01:12:18	00:49:20
237	99			Jerome OUVRARD	02:35:29	SEM	136	230	TRI CLUB NANTAIS	17:19:21	00:37:44	01:13:14	00:44:29	00:37:44	01:13:14	00:44:29
238	824			Emmanuel CASTUS	02:35:30	VEM	91	231	REQUINS COURONNAIS TRIATHLON	17:19:22	00:40:56	01:11:02	00:43:31	00:40:56	01:11:02	00:43:31
239	637			Pierre LEGENDRE	02:35:45	SEM	137	232	BROCELIANDE TRI	17:19:37	00:42:40	01:13:30	00:39:34	00:42:40	01:13:30	00:39:34
240	665			Benjamin LEPAISANT	02:35:46	SEM	138	233	CNP REDON	17:19:38	00:38:57	01:12:06	00:44:43	00:38:57	01:12:06	00:44:43
241	359			Damien CUOQ	02:35:47	VEM	92	234	US PALAISEAU TRI	17:19:38	00:35:56	01:12:24	00:47:25	00:35:56	01:12:24	00:47:25
242	782			Marc DELAVEAU	02:35:50	VEM	93	235	SAINT-NAZAIRE	17:19:42	00:33:06	01:19:55	00:42:48	00:33:06	01:19:55	00:42:48
243	11			Vincent LHOPITAL	02:36:08	SEM	139	236	WILD TEAM TRI AIRBUS |	17:20:00	00:36:02	01:13:55	00:46:11	00:36:02	01:13:55	00:46:11
244	330			Ghilini LAFONT	02:36:11	VEM	94	237	UNION ATHLETIQUE SOCIETE GENERALE	17:20:03	00:39:39	01:10:51	00:45:40	00:39:39	01:10:51	00:45:40
245	275			Yves LE GUER	02:36:12	VEM	95	238	PAU TRI	17:20:04	00:35:41	01:14:01	00:46:29	00:35:41	01:14:01	00:46:29
246	495			Didier HERANT	02:36:13	VEM	96	239	BEST TRI SAINT NAZAIRE	17:20:04	00:36:27	01:15:07	00:44:37	00:36:27	01:15:07	00:44:37
247	308			Pierre ASSELIN	02:36:14	SEM	140	240	CLUB DES NAGEURS DE PARIS	17:20:06	00:36:56	01:13:51	00:45:26	00:36:56	01:13:51	00:45:26
248	292			Franck DERET	02:36:17	VEM	97	241	MAT 72  LE MANS ASSOCIATION TRIA	17:20:08	00:37:46	01:11:59	00:46:31	00:37:46	01:11:59	00:46:31
249	649			Herve DURAND	02:36:17	VEM	98	242	AS ENERGY 91 TRI	17:20:09	00:37:56	01:11:55	00:46:25	00:37:56	01:11:55	00:46:25
250	251			Franck LAMY	02:36:18	VEM	99	243	CHATEAU GONTIER TRI	17:20:10	00:31:27	01:14:14	00:50:37	00:31:27	01:14:14	00:50:37
251	321			Emilien CHAUVETET	02:36:27	SEM	141	244	STADE FRANCAIS	17:20:18	00:43:43	01:09:32	00:43:11	00:43:43	01:09:32	00:43:11
252	922			Reynald MARTINEAU	02:36:30	SEM	142	245	POISSY TRI	17:20:21	00:39:48	01:11:02	00:45:39	00:39:48	01:11:02	00:45:39
253	732			David BREBION	02:36:32	SEM	143	246	USA TRIATHLON	17:20:24	00:38:35	01:12:35	00:45:22	00:38:35	01:12:35	00:45:22
254	967			Alderic LOGEAIS	02:36:37	SEM	144	247	LES SABLES VENDEE TRI	17:20:29	00:40:48	01:11:55	00:43:53	00:40:48	01:11:55	00:43:53
255	522			Antoine HALOPEAU	02:36:39	SEM	145	248	TRI OLYMPIC DINARD	17:20:31	00:35:46	01:13:57	00:46:55	00:35:46	01:13:57	00:46:55
256	204			Christophe GUERET	02:36:39	VEM	100	249	SAUMUR TEAM TRI	17:20:31	00:37:44	01:12:02	00:46:52	00:37:44	01:12:02	00:46:52
257	454			Pascal LUSSON	02:36:43	VEM	101	250	PAYS D ANCENIS CLUB TRI 44	17:20:35	00:39:39	01:10:30	00:46:32	00:39:39	01:10:30	00:46:32
258	455			Sebastien GOUBAUD	02:36:44	VEM	102	251	PAYS D ANCENIS CLUB TRI 44	17:20:35	00:39:21	01:11:33	00:45:49	00:39:21	01:11:33	00:45:49
259	890			Guillaume MORIN	02:36:46	SEM	146	252	LA BAULE-ESCOUBLAC	17:20:37	00:38:37	01:17:16	00:40:52	00:38:37	01:17:16	00:40:52
260	774			Jean-Marie QUEMENER	02:36:52	SEM	147	253	PARIS	17:20:44	00:34:37	01:17:07	00:45:07	00:34:37	01:17:07	00:45:07
261	818			Pierre-Henri CORBILLE	02:36:52	SEM	148	254	PONTCHATEAU	17:20:44	00:39:30	01:12:35	00:44:46	00:39:30	01:12:35	00:44:46
262	293			Ludovic DURAND	02:36:53	VEM	103	255	MAT 72  LE MANS ASSOCIATION TRIA	17:20:45	00:36:13	01:13:35	00:47:05	00:36:13	01:13:35	00:47:05
263	249			Bruno GAIGNER	02:36:54	SEM	149	256	CHATEAU GONTIER TRI	17:20:46	00:42:15	01:12:46	00:41:52	00:42:15	01:12:46	00:41:52
264	247			Jerome DELOGE	02:36:56	SEM	150	257	CHATEAU GONTIER TRI	17:20:48	00:40:04	01:13:41	00:43:10	00:40:04	01:13:41	00:43:10
265	980			Philippe MOREAU	02:37:00	VEM	104	258	STADE POITEVIN TRI	17:20:52	00:45:02	01:13:25	00:38:32	00:45:02	01:13:25	00:38:32
266	172			Laurent SAVARIN	02:37:00	VEM	105	259	TRI VELOCE SAINT SEBASTIEN	17:20:52	00:38:46	01:14:43	00:43:31	00:38:46	01:14:43	00:43:31
267	347			Benoit PLUNIAN	02:37:01	SEM	151	260	POMPIERS VANNES AVENTURE	17:20:53	00:36:25	01:17:36	00:42:59	00:36:25	01:17:36	00:42:59
268	119			Jerome BLIN	02:37:20	VEM	106	261	TRI COTE D AMOUR	17:21:12	00:39:32	01:11:01	00:46:46	00:39:32	01:11:01	00:46:46
269	997			Alain WEMELLE	02:37:22	VEM	107	262	CLUB YERROIS DE TRI 91	17:21:14	00:40:12	01:10:40	00:46:29	00:40:12	01:10:40	00:46:29
270	834			Stephane LE SEAC H	02:37:23	VEM	108	263	MAGNY-LES-HAMEAUX	17:21:15	00:38:29	01:16:21	00:42:32	00:38:29	01:16:21	00:42:32
271	383			Franck NOURICHARD	02:37:33	VEM	109	264	COURBEVOIE TRI	17:21:25	00:36:11	01:14:29	00:46:52	00:36:11	01:14:29	00:46:52
272	483			Christophe SIMON	02:37:35	VEM	110	265	BEST TRI SAINT NAZAIRE	17:21:27	00:32:58	01:15:00	00:49:37	00:32:58	01:15:00	00:49:37
273	608			Arnaud ROBERT	02:37:35	SEM	152	266	OLYMPIQUE CLUB CESSONNAIS DE NATATION	17:21:27	00:36:54	01:12:52	00:47:48	00:36:54	01:12:52	00:47:48
274	542			Sylvain MARCHESSEAU	02:37:36	VEM	111	267	LA ROCHELLE TRI	17:21:28	00:38:29	01:12:30	00:46:36	00:38:29	01:12:30	00:46:36
275	235			Nicolas QUEMENEUR	02:37:37	VEM	112	268	TOBESPORT	17:21:29	00:38:55	01:11:37	00:47:04	00:38:55	01:11:37	00:47:04
276	759			Nicolas FAVREL	02:37:40	VEM	113	269	THOUARE-SUR-LOIRE	17:21:32	00:39:57	01:11:03	00:46:40	00:39:57	01:11:03	00:46:40
277	611			Julien VIMONT	02:37:46	VEM	114	270	NOGENT SOLIDARITE TRI	17:21:37	00:41:02	01:12:38	00:44:05	00:41:02	01:12:38	00:44:05
278	474			Gaetan PERRAUD	02:37:49	VEM	115	271	BLAIN TRI	17:21:41	00:36:48	01:13:14	00:47:46	00:36:48	01:13:14	00:47:46
279	581			Didier DUMAIN	02:37:54	VEM	116	272	VILLENEUVE D ASCQ TRI	17:21:45	00:41:52	01:13:34	00:42:27	00:41:52	01:13:34	00:42:27
280	631			Remi PAYRE	02:37:54	VEM	117	273	CA VILLENAVE D ORNON TRI	17:21:46	00:41:10	01:12:06	00:44:37	00:41:10	01:12:06	00:44:37
281	6			Emmanuel RORTEAU	02:37:58	VEM	118	274	CONSEIL REGIONAL |	17:21:50	00:41:16	01:11:40	00:45:01	00:41:16	01:11:40	00:45:01
282	771			Fabien MAIGROT	02:38:01	VEM	119	275	AUFFARGIS	17:21:53	00:39:29	01:15:17	00:43:15	00:39:29	01:15:17	00:43:15
283	415			Adrien MARECHAL	02:38:03	SEM	153	276	TRI SANNOIS FRANCONVILLE	17:21:55	00:39:26	01:11:06	00:47:30	00:39:26	01:11:06	00:47:30
284	160			Brice GUTERMANN	02:38:04	VEM	120	277	TRI SPORT COUERONNAIS	17:21:56	00:43:10	01:11:40	00:43:14	00:43:10	01:11:40	00:43:14
285	574			Marc GIRAUDON	02:38:13	VEM	121	278	WILD TEAM TRI	17:22:04	00:38:05	01:14:16	00:45:51	00:38:05	01:14:16	00:45:51
286	605			Anne BOURCY	02:38:14	SEF	7	8	RACING MULTI ATHLON	17:22:05	00:36:47	01:14:10	00:47:16	00:36:47	01:14:10	00:47:16
287	750			Laurent LE MOUILLOUR	02:38:14	VEM	122	279	VANNES	17:22:06	00:37:21	01:14:01	00:46:51	00:37:21	01:14:01	00:46:51
288	545			Mickael DELAVAUD	02:38:15	VEM	123	280	LA ROCHELLE TRI	17:22:07	00:40:57	01:11:59	00:45:18	00:40:57	01:11:59	00:45:18
289	557			Jean Louis GOMES	02:38:17	SEM	154	281	YPRL SAINT CYR TRI	17:22:09	00:37:58	01:15:48	00:44:30	00:37:58	01:15:48	00:44:30
290	927			Stephane ROBERT	02:38:23	VEM	124	282	POISSY TRI	17:22:15	00:34:42	01:12:37	00:51:03	00:34:42	01:12:37	00:51:03
291	534			Samuel FERLICOT	02:38:27	VEM	125	283	CEPS DINAN ARMOR TRI	17:22:18	00:35:17	01:14:07	00:49:01	00:35:17	01:14:07	00:49:01
292	226			Francois GRELET	02:38:30	SEM	155	284	TOBESPORT	17:22:21	00:40:20	01:13:19	00:44:50	00:40:20	01:13:19	00:44:50
293	959			Gregory BODIN	02:38:34	VEM	126	285	LA ROCHE VENDEE TRI	17:22:26	00:37:58	01:13:15	00:47:20	00:37:58	01:13:15	00:47:20
294	274			Yannick QUINIO	02:38:36	VEM	127	286		17:22:28	00:38:54	01:15:12	00:44:29	00:38:54	01:15:12	00:44:29
295	657			Benoit THEZE	02:38:37	SEM	156	287	TRIATHLON CLUB LOCMINE	17:22:29	00:38:41	01:12:01	00:47:54	00:38:41	01:12:01	00:47:54
296	445			Gaspard CHALABREYSSE	02:38:38	SEM	157	288	PARIS	17:22:29	00:37:34	01:12:08	00:48:54	00:37:34	01:12:08	00:48:54
297	135			Stephane KLEIN	02:38:39	VEM	128	289	TRI COTE D AMOUR	17:22:31	00:35:19	01:13:22	00:49:57	00:35:19	01:13:22	00:49:57
298	148			Frederic POUTEAU	02:38:42	SEM	158	290	TRI COTE D AMOUR	17:22:34	00:32:17	01:13:56	00:52:29	00:32:17	01:13:56	00:52:29
299	572			Romain GREGOND	02:38:47	SEM	159	291	WILD TEAM TRI	17:22:38	00:37:31	01:17:08	00:44:07	00:37:31	01:17:08	00:44:07
300	361			Stephane GUILLOTIN	02:38:49	VEM	129	292	US PALAISEAU TRI	17:22:41	00:40:25	01:14:00	00:44:22	00:40:25	01:14:00	00:44:22
301	914			David SICARD	02:38:53	VEM	130	293	GUENROUET	17:22:45	00:40:09	01:12:04	00:46:39	00:40:09	01:12:04	00:46:39
302	112			Stephane SCHOUMAKER	02:38:55	VEM	131	294	TRI CLUB NANTAIS	17:22:46	00:33:36	01:18:45	00:46:33	00:33:36	01:18:45	00:46:33
303	621			Marcel LE FUR	02:38:55	VEM	132	295	LORIENT TRI FLK	17:22:47	00:36:05	01:13:55	00:48:55	00:36:05	01:13:55	00:48:55
304	660			Ivan PORTE	02:39:00	VEM	133	296	PLESSIS ROBINSON	17:22:51	00:39:19	01:14:36	00:45:03	00:39:19	01:14:36	00:45:03
305	591			Benjamin TETART	02:39:02	SEM	160	297	SAINT LO TRI	17:22:54	00:36:22	01:14:24	00:48:16	00:36:22	01:14:24	00:48:16
306	352			Bruno MARCHEBOUT	02:39:05	VEM	134	298	TRI CLUB DE VILLEPARISIS	17:22:56	00:34:15	01:13:06	00:51:43	00:34:15	01:13:06	00:51:43
307	677			Harold LEMAITRE	02:39:05	SEM	161	299	LE MANS	17:22:57	00:39:03	01:14:46	00:45:14	00:39:03	01:14:46	00:45:14
308	262			Damien LE BRIS	02:39:06	SEM	162	300	LAVAL TRI CLUB	17:22:58	00:35:38	01:11:28	00:51:59	00:35:38	01:11:28	00:51:59
309	457			Anthony BRANGEON	02:39:10	VEM	135	301	PAYS D ANCENIS CLUB TRI 44	17:23:02	00:41:35	01:13:42	00:43:52	00:41:35	01:13:42	00:43:52
310	252			Lionel RIESTER	02:39:17	SEM	163	302	CHATEAU GONTIER TRI	17:23:08	00:40:01	01:15:56	00:43:18	00:40:01	01:15:56	00:43:18
311	529			Olivier COURTECUISSE	02:39:17	VEM	136	303	S A M MERIGNAC TRI	17:23:08	00:36:09	01:15:26	00:47:41	00:36:09	01:15:26	00:47:41
312	407			Julien SERRES	02:39:20	VEM	137	304	MEUDON TRI	17:23:11	00:37:18	01:13:48	00:48:12	00:37:18	01:13:48	00:48:12
313	592			Christophe BOSCHET	02:39:21	VEM	138	305	SAINT LO TRI	17:23:12	00:35:57	01:17:51	00:45:32	00:35:57	01:17:51	00:45:32
314	144			Sebastien PHILIPPE	02:39:27	VEM	139	306	TRI COTE D AMOUR	17:23:18	00:36:21	01:12:17	00:50:47	00:36:21	01:12:17	00:50:47
315	340			Francois HERMIER	02:39:28	VEM	140	307	ROUEN TRI	17:23:19	00:34:59	01:14:59	00:49:28	00:34:59	01:14:59	00:49:28
316	95			Laure MENARD	02:39:28	SEF	8	9	TRI CLUB NANTAIS	17:23:20	00:41:31	01:13:03	00:44:54	00:41:31	01:13:03	00:44:54
317	29			Maxime FARDOUIN	02:39:40	SEM	164	308	SNLS44	17:23:31	00:35:29	01:11:31	00:52:39	00:35:29	01:11:31	00:52:39
318	685			Eric THOMIN	02:39:41	VEM	141	309	POUILLE-LES-COTEAUX	17:23:33	00:35:43	01:16:28	00:47:29	00:35:43	01:16:28	00:47:29
319	267			Yannick FEDUN	02:39:42	SEM	165	310	TRIATHLE VANNES	17:23:34	00:38:02	01:15:38	00:46:02	00:38:02	01:15:38	00:46:02
320	968			Paul PROUTEAU	02:39:44	JUM	5	311	LES SABLES VENDEE TRI	17:23:36	00:35:20	01:14:13	00:50:11	00:35:20	01:14:13	00:50:11
321	965			Olivier ROBIC	02:39:47	VEM	142	312	LA ROCHE VENDEE TRI	17:23:39	00:36:45	01:11:44	00:51:17	00:36:45	01:11:44	00:51:17
322	636			Etienne TRIBODET	02:39:49	VEM	143	313	BROCELIANDE TRI	17:23:41	00:37:56	01:12:59	00:48:53	00:37:56	01:12:59	00:48:53
323	157			Wilfried ALTEIRAC	02:39:53	SEM	166	314	TRI SPORT COUERONNAIS	17:23:44	00:35:16	01:16:15	00:48:21	00:35:16	01:16:15	00:48:21
324	489			Patrick LEROUX	02:39:53	VEM	144	315	BEST TRI SAINT NAZAIRE	17:23:44	00:39:07	01:14:43	00:46:02	00:39:07	01:14:43	00:46:02
325	1013			Ludovic LEVEQUE	02:39:56	SEM	167	316	CLUB BPC	17:23:48	00:40:37	01:15:30	00:43:48	00:40:37	01:15:30	00:43:48
326	886			Eric PAVIE	02:39:59	VEM	145	317	MONTREUIL	17:23:51	00:43:29	01:14:06	00:42:23	00:43:29	01:14:06	00:42:23
327	430			Pascal HEBERT	02:40:01	VEM	146	318	TC JOUE LES TOURS	17:23:52	00:36:28	01:14:56	00:48:36	00:36:28	01:14:56	00:48:36
328	271			Johan PFEIFFER	02:40:01	SEM	168	319	WAPITI TRI CLUB DE LARMOR PLA	17:23:53	00:31:06	01:16:48	00:52:06	00:31:06	01:16:48	00:52:06
329	288			Yoann BOURDIN	02:40:05	SEM	169	320	MAT 72  LE MANS ASSOCIATION TRIA	17:23:56	00:42:24	01:12:42	00:44:58	00:42:24	01:12:42	00:44:58
330	531			Arnaud LALANDE	02:40:08	VEM	147	321	TRI CLUB DE QUIMPER	17:24:00	00:36:44	01:14:09	00:49:14	00:36:44	01:14:09	00:49:14
331	73			Laurent GONON	02:40:09	VEM	148	322	TRI CLUB NANTAIS	17:24:00	00:43:42	01:13:14	00:43:12	00:43:42	01:13:14	00:43:12
332	499			Alexandre GUINEFORT	02:40:09	SEM	170	323	BEST TRI SAINT NAZAIRE	17:24:01	00:36:56	01:19:05	00:44:08	00:36:56	01:19:05	00:44:08
333	116			Richard BARBET	02:40:11	VEM	149	324	TRI COTE D AMOUR	17:24:03	00:38:33	01:15:13	00:46:24	00:38:33	01:15:13	00:46:24
334	323			Hugues DANGY	02:40:16	VEM	150	325	STADE FRANCAIS	17:24:07	00:39:55	01:14:32	00:45:48	00:39:55	01:14:32	00:45:48
335	855			Didier BOURGET	02:40:19	VEM	151	326	USA TRIATHLON	17:24:10	00:32:43	01:14:46	00:52:50	00:32:43	01:14:46	00:52:50
336	287			Benoit BORDONADO	02:40:24	VEM	152	327	MAT 72  LE MANS ASSOCIATION TRIA	17:24:16	00:35:42	01:15:31	00:49:10	00:35:42	01:15:31	00:49:10
337	780			Morgane GOBIN	02:40:24	SEF	9	10	SCA 2000 TRIATHLON EVRY	17:24:16	00:32:00	01:16:13	00:52:09	00:32:00	01:16:13	00:52:09
338	451			Wilfrid STINDEL	02:40:25	VEM	153	328	PAYS D ANCENIS CLUB TRI 44	17:24:17	00:36:08	01:13:44	00:50:33	00:36:08	01:13:44	00:50:33
339	12			Alain MOSSET	02:40:26	VEM	154	329	TRI COTE D AMOUR AIRBUS |	17:24:17	00:36:16	01:17:52	00:46:17	00:36:16	01:17:52	00:46:17
340	785			Christophe MARCHAND	02:40:31	VEM	155	330	PORNICHET	17:24:23	00:38:18	01:16:10	00:46:01	00:38:18	01:16:10	00:46:01
341	909			Steeve TAGLIONE	02:40:38	SEM	171	331	ADIDAS |	17:24:30	00:43:21	01:11:06	00:46:10	00:43:21	01:11:06	00:46:10
342	919			Thierry GRELIER	02:40:42	VEM	156	332	POISSY TRI	17:24:34	00:41:06	01:12:21	00:47:14	00:41:06	01:12:21	00:47:14
343	953			Laurent SELLIN	02:40:45	VEM	157	333	LES CENTAURES DE PERTUIS	17:24:36	00:37:19	01:17:03	00:46:21	00:37:19	01:17:03	00:46:21
344	3			Jean Marie ROINE	02:40:45	VEM	158	334	PAYS D ANCENIS CLUB TRI 44 CONSEIL DEPARTEMENTAL |	17:24:37	00:37:54	01:10:44	00:52:06	00:37:54	01:10:44	00:52:06
345	66			Samuel DEBURE	02:40:49	VEM	159	335	TRI CLUB NANTAIS	17:24:40	00:40:11	01:15:24	00:45:12	00:40:11	01:15:24	00:45:12
346	163			Cyrille COLLART	02:40:50	SEM	172	336	TRI VELOCE SAINT SEBASTIEN	17:24:41	00:38:26	01:16:23	00:46:00	00:38:26	01:16:23	00:46:00
347	71			Julien GAGNOT	02:40:53	SEM	173	337	TRI CLUB NANTAIS	17:24:45	00:37:01	01:13:11	00:50:40	00:37:01	01:13:11	00:50:40
348	864			Matthias LOBOGNON	02:41:01	VEM	160	338	BREST TRIATHLON	17:24:53	00:41:13	01:13:35	00:46:12	00:41:13	01:13:35	00:46:12
349	131			Basile GUIDAULT	02:41:04	SEM	174	339	TRI COTE D AMOUR	17:24:55	00:44:07	01:10:26	00:46:30	00:44:07	01:10:26	00:46:30
350	822			Jean Philippe LOUVET	02:41:06	VEM	161	340	YVETOT TRIATHLON	17:24:58	00:35:37	01:12:06	00:53:22	00:35:37	01:12:06	00:53:22
351	699			Thibaut GRARE	02:41:08	SEM	175	341	LA ROCHE-SUR-YON	17:24:59	00:34:38	01:18:59	00:47:29	00:34:38	01:18:59	00:47:29
352	1017			Christophe DROUARD	02:41:12	VEM	162	342	TOBESPORT	17:25:03	00:41:16	01:14:15	00:45:39	00:41:16	01:14:15	00:45:39
353	70			Marc FRANCOIS	02:41:17	VEM	163	343	TRI CLUB NANTAIS	17:25:09	00:40:11	01:15:14	00:45:51	00:40:11	01:15:14	00:45:51
354	102			Jacques PIQUET	02:41:23	VEM	164	344	TRI CLUB NANTAIS	17:25:15	00:35:37	01:08:00	00:57:45	00:35:37	01:08:00	00:57:45
355	113			Aurelie THARREAU MECHINEAU	02:41:26	SEF	10	11	TRI CLUB NANTAIS	17:25:17	00:36:47	01:16:42	00:47:56	00:36:47	01:16:42	00:47:56
356	625			Luc SARLANDIE	02:41:26	SEM	176	345	LE CLUB TRI	17:25:17	00:37:53	01:13:54	00:49:38	00:37:53	01:13:54	00:49:38
357	638			Erwann JAN	02:41:32	VEM	165	346	BROCELIANDE TRI	17:25:23	00:39:36	01:10:56	00:50:59	00:39:36	01:10:56	00:50:59
358	221			Jean Christophe DUFOUR	02:41:38	VEM	166	347	TOBESPORT	17:25:29	00:43:23	01:16:40	00:41:34	00:43:23	01:16:40	00:41:34
359	401			Guillaume GRANDIN	02:41:38	SEM	177	348	LEVALLOIS TRI	17:25:30	00:36:18	01:14:48	00:50:32	00:36:18	01:14:48	00:50:32
360	331			Benoit ROCHETTE	02:41:39	SEM	178	349	UNION ATHLETIQUE SOCIETE GENERALE	17:25:31	00:37:20	01:18:38	00:45:40	00:37:20	01:18:38	00:45:40
361	643			Ludovic TIZON	02:41:39	VEM	167	350	ASCR TRI	17:25:31	00:40:35	01:14:27	00:46:37	00:40:35	01:14:27	00:46:37
362	538			Jerome PROTON	02:41:40	VEM	168	351	LA ROCHELLE TRI	17:25:32	00:39:00	01:14:49	00:47:50	00:39:00	01:14:49	00:47:50
363	96			Benoit MOREAUD	02:41:42	VEM	169	352	TRI CLUB NANTAIS	17:25:34	00:41:27	01:11:49	00:48:25	00:41:27	01:11:49	00:48:25
364	493			Christoph KLUTH	02:41:44	VEM	170	353	BEST TRI SAINT NAZAIRE	17:25:36	00:35:47	01:14:17	00:51:39	00:35:47	01:14:17	00:51:39
365	478			Olivier DUBOUCHET	02:41:47	VEM	171	354	BLAIN TRI	17:25:39	00:40:35	01:13:11	00:48:00	00:40:35	01:13:11	00:48:00
366	517			Laurent JACQUES	02:41:49	VEM	172	355	BISCARROSSE OLYMPIQUE TRI	17:25:40	00:40:58	01:13:08	00:47:42	00:40:58	01:13:08	00:47:42
367	882			Romain DEL FABRO	02:41:50	SEM	179	356	ASL GDF SUEZ	17:25:41	00:39:01	01:14:52	00:47:56	00:39:01	01:14:52	00:47:56
368	220			Quentin DEMASSIEUX	02:41:52	SEM	180	357	TOBESPORT	17:25:43	00:43:43	01:13:45	00:44:23	00:43:43	01:13:45	00:44:23
369	770			Florian DROUARD	02:41:53	SEM	181	358	BEAUVAIS TRIATHLON	17:25:45	00:37:20	01:17:35	00:46:58	00:37:20	01:17:35	00:46:58
370	627			Frederic LE QUEC	02:41:55	VEM	173	359	HAC TRI	17:25:46	00:39:33	01:18:10	00:44:10	00:39:33	01:18:10	00:44:10
371	224			Herve GAUDILLAT	02:41:56	VEM	174	360	TOBESPORT	17:25:48	00:41:10	01:15:05	00:45:40	00:41:10	01:15:05	00:45:40
372	60			Bertrand CALIEZ	02:41:58	VEM	175	361	TRI CLUB NANTAIS	17:25:49	00:36:10	01:12:49	00:52:57	00:36:10	01:12:49	00:52:57
373	138			Thierry LANGUIL	02:41:58	VEM	176	362	TRI COTE D AMOUR	17:25:50	00:39:59	01:13:46	00:48:12	00:39:59	01:13:46	00:48:12
374	897			David BECHEMILH	02:41:59	SEM	182	363	MANITOU |	17:25:50	00:41:50	01:12:55	00:47:13	00:41:50	01:12:55	00:47:13
375	413			Gilles ARGUILLES	02:41:59	VEM	177	364	TRI SANNOIS FRANCONVILLE	17:25:51	00:42:38	01:14:17	00:45:03	00:42:38	01:14:17	00:45:03
376	390			Regis LAUPRETE	02:41:59	VEM	178	365	ENTENTE SPORTIVE NANTERRE	17:25:51	00:42:56	01:14:17	00:44:45	00:42:56	01:14:17	00:44:45
377	924			Henri-Jean POLAERT	02:42:00	VEM	179	366	POISSY TRI	17:25:52	00:43:14	01:15:02	00:43:43	00:43:14	01:15:02	00:43:43
378	983			Alexandre GAUFFENY	02:42:02	SEM	183	367	CLUB YERROIS DE TRI 91	17:25:54	00:38:50	01:14:44	00:48:27	00:38:50	01:14:44	00:48:27
379	547			Valerie HAMON	02:42:09	SEF	11	12	TEAM CHARENTES TRI	17:26:01	00:37:27	01:18:36	00:46:06	00:37:27	01:18:36	00:46:06
380	124			Fabrice DOUAUD	02:42:10	VEM	180	368	TRI COTE D AMOUR	17:26:02	00:36:11	01:15:57	00:50:01	00:36:11	01:15:57	00:50:01
381	171			Vincent ROUSSEAU	02:42:10	VEM	181	369	TRI VELOCE SAINT SEBASTIEN	17:26:02	00:37:57	01:17:27	00:46:45	00:37:57	01:17:27	00:46:45
382	298			Fabrice PELTIER	02:42:10	SEM	184	370	MAT 72  LE MANS ASSOCIATION TRIA	17:26:02	00:36:31	01:18:09	00:47:30	00:36:31	01:18:09	00:47:30
383	8			Sylvain GOBICHON	02:42:11	VEM	182	371	AIRBUS |	17:26:03	00:42:36	01:12:44	00:46:50	00:42:36	01:12:44	00:46:50
384	825			David ANDREAUX	02:42:13	VEM	183	372	TRIATHLON CLUB CARCASSONNAIS	17:26:05	00:31:37	01:16:41	00:53:54	00:31:37	01:16:41	00:53:54
385	666			Nicolas NORMAND	02:42:17	SEM	185	373	CHARTRES METROPOLE TRIATHLON	17:26:09	00:36:38	01:13:49	00:51:49	00:36:38	01:13:49	00:51:49
386	104			Emmanuel PROD HOMME	02:42:20	VEM	184	374	TRI CLUB NANTAIS	17:26:11	00:41:01	01:14:54	00:46:24	00:41:01	01:14:54	00:46:24
387	354			Pierre Alexandre LEMAITRE	02:42:25	SEM	186	375	TRI CLUB TORCY	17:26:16	00:36:06	01:16:03	00:50:15	00:36:06	01:16:03	00:50:15
388	644			Herve DELEPINE	02:42:31	VEM	185	376	ASCR TRI	17:26:23	00:39:09	01:15:10	00:48:11	00:39:09	01:15:10	00:48:11
389	548			Kevin RIZZOTTO	02:42:33	SEM	187	377	CAEN TRI	17:26:24	00:39:35	01:18:24	00:44:33	00:39:35	01:18:24	00:44:33
390	1008			Nicolas LANGLOIS	02:42:37	VEM	186	378		17:26:29	00:38:23	01:16:47	00:47:26	00:38:23	01:16:47	00:47:26
391	789			Pierre-Antoine LORTHIOS	02:42:40	SEM	188	379	HEM	17:26:32	00:41:38	01:17:58	00:43:04	00:41:38	01:17:58	00:43:04
392	805			David PINEAU	02:42:45	SEM	189	380	PARIS	17:26:36	00:43:03	01:13:45	00:45:55	00:43:03	01:13:45	00:45:55
393	261			Laurent LACHAZE	02:42:47	VEM	187	381	LAVAL TRI CLUB	17:26:39	00:36:07	01:17:10	00:49:29	00:36:07	01:17:10	00:49:29
394	183			Wilfrid BODET	02:42:50	VEM	188	382	ANJOU TRI TRELAZE	17:26:42	00:41:57	01:12:57	00:47:56	00:41:57	01:12:57	00:47:56
395	358			Luc VIEGAS-MAU	02:42:55	VEM	189	383	SAINTE GENEVIEVE TRI	17:26:47	00:35:14	01:13:08	00:54:32	00:35:14	01:13:08	00:54:32
396	18			Mathieu DEBRAY	02:42:56	SEM	190	384	SAINT HERBLAIN TRI	17:26:48	00:42:27	01:13:09	00:47:19	00:42:27	01:13:09	00:47:19
397	250			Stephane GENDRY	02:43:02	SEM	191	385	CHATEAU GONTIER TRI	17:26:54	00:43:43	01:13:21	00:45:58	00:43:43	01:13:21	00:45:58
398	241			Patrick HINAULT	02:43:03	VEM	190	386	CHERBOURG TRI	17:26:55	00:40:19	01:19:11	00:43:32	00:40:19	01:19:11	00:43:32
399	1021			Henri AVRIL	02:43:04	VEM	191	387	TRIATHLON HAUTE SAINTONGE	17:26:55	00:44:17	01:14:10	00:44:36	00:44:17	01:14:10	00:44:36
400	806			Hugues DE MEZERAC	02:43:05	SEM	192	388	CAPGEMINI	17:26:57	00:35:26	01:17:24	00:50:15	00:35:26	01:17:24	00:50:15
401	622			Jean Michel CRUSSON	02:43:07	VEM	192	389	LORIENT TRI FLK	17:26:59	00:42:10	01:17:17	00:43:39	00:42:10	01:17:17	00:43:39
402	428			Jean-Marc AUTRIC	02:43:10	SEM	193	390	TC JOUE LES TOURS	17:27:02	00:36:29	01:26:04	00:40:35	00:36:29	01:26:04	00:40:35
403	857			Patrick MICHEL	02:43:19	VEM	193	391	NOISY TRI	17:27:11	00:41:26	01:15:41	00:46:10	00:41:26	01:15:41	00:46:10
404	1014			Xavier PLASSAIS	02:43:21	VEM	194	392	TRI COTE D AMOUR	17:27:13	00:43:21	01:14:10	00:45:49	00:43:21	01:14:10	00:45:49
405	145			Franck PIRON	02:43:23	SEM	194	393	TRI COTE D AMOUR	17:27:14	00:36:45	01:18:08	00:48:29	00:36:45	01:18:08	00:48:29
406	1018			Jerome GROUSSARD	02:43:23	VEM	195	394	TOBESPORT	17:27:15	00:38:34	01:12:02	00:52:46	00:38:34	01:12:02	00:52:46
407	999			Nicolas ROUX	02:43:24	VEM	196	395	PARIS	17:27:15	00:35:49	01:16:18	00:51:16	00:35:49	01:16:18	00:51:16
408	935			Patrick LESAGE	02:43:25	VEM	197	396	VELIZY TRI	17:27:17	00:43:31	01:11:15	00:48:39	00:43:31	01:11:15	00:48:39
409	696			Antoine LEHUE	02:43:37	SEM	195	397	DOUE-LA-FONTAINE	17:27:29	00:43:25	01:13:03	00:47:08	00:43:25	01:13:03	00:47:08
410	720			Sebastien COUTAN	02:43:42	SEM	196	398	UDSP LOIRET TRI	17:27:34	00:43:01	01:13:37	00:47:03	00:43:01	01:13:37	00:47:03
411	831			Julian PARSONS	02:43:42	VEM	198	399	COURBEVOIE	17:27:34	00:41:18	01:16:28	00:45:55	00:41:18	01:16:28	00:45:55
412	381			Philippe LAUPRETE	02:43:45	VEM	199	400	COURBEVOIE TRI	17:27:37	00:40:34	01:16:40	00:46:30	00:40:34	01:16:40	00:46:30
413	841			Raphael JACQUEMARD	02:43:46	VEM	200	401	COURBEVOIE	17:27:38	00:41:17	01:13:33	00:48:55	00:41:17	01:13:33	00:48:55
414	222			Gilles FLEURY	02:43:48	VEM	201	402	TOBESPORT	17:27:40	00:40:11	01:15:33	00:48:03	00:40:11	01:15:33	00:48:03
415	161			Didier SEGONDS	02:43:51	VEM	202	403	TRI SPORT COUERONNAIS	17:27:43	00:44:17	01:13:35	00:45:59	00:44:17	01:13:35	00:45:59
416	376			Dominique DEPREY	02:43:53	VEM	203	404	COURBEVOIE TRI	17:27:45	00:39:41	01:15:33	00:48:37	00:39:41	01:15:33	00:48:37
417	615			Emmanuel FILLATRE	02:44:04	SEM	197	405	NOGENT SOLIDARITE TRI	17:27:56	00:45:59	01:14:16	00:43:48	00:45:59	01:14:16	00:43:48
418	530			Yann MARCHAND	02:44:11	VEM	204	406	TRI CLUB DE QUIMPER	17:28:03	00:33:42	01:16:35	00:53:54	00:33:42	01:16:35	00:53:54
419	593			Yannick BERNARD	02:44:14	VEM	205	407	SAINT LO TRI	17:28:06	00:39:52	01:12:10	00:52:12	00:39:52	01:12:10	00:52:12
420	728			Paul BARREYRE	02:44:15	VEM	206	408	ISSY-LES-MOULINEAUX	17:28:07	00:43:10	01:14:20	00:46:45	00:43:10	01:14:20	00:46:45
421	703			Jean-Baptiste BICHOT	02:44:20	SEM	198	409	LA BAULE-ESCOUBLAC	17:28:11	00:37:01	01:17:45	00:49:33	00:37:01	01:17:45	00:49:33
422	872			Walter POUCH	02:44:21	VEM	207	410	SAINT-MAUR-DES-FOSSES	17:28:13	00:42:30	01:17:23	00:44:27	00:42:30	01:17:23	00:44:27
423	551			Damien HUBER	02:44:30	VEM	208	411	CAEN TRI	17:28:22	00:41:07	01:14:18	00:49:05	00:41:07	01:14:18	00:49:05
424	810			Jeremie BENOIT	02:44:34	SEM	199	412	SALON-DE-PROVENCE	17:28:25	00:34:08	01:23:06	00:47:18	00:34:08	01:23:06	00:47:18
425	972			David LE ROUX	02:44:36	VEM	209	413	ST JEAN DE MONTS VENDEE TRI ATHLETISME	17:28:28	00:36:01	01:16:16	00:52:18	00:36:01	01:16:16	00:52:18
426	14			Jean Francois FIAUD	02:44:37	SEM	200	414	ATHLETIC CLUB BOULOGNE BILLANCOURT	17:28:29	00:40:45	01:16:57	00:46:54	00:40:45	01:16:57	00:46:54
427	1024			Marc MORISSET	02:44:38	VEM	210	415	TRI FLERS LA FERTE MACE	17:28:30	00:40:36	01:13:29	00:50:32	00:40:36	01:13:29	00:50:32
428	971			Emmanuel GRAVIER	02:44:40	VEM	211	416	ST JEAN DE MONTS VENDEE TRI ATHLETISME	17:28:32	00:40:12	01:13:34	00:50:54	00:40:12	01:13:34	00:50:54
429	918			Laurent GEOFFROY	02:44:41	VEM	212	417	POISSY TRI	17:28:32	00:36:44	01:11:25	00:56:31	00:36:44	01:11:25	00:56:31
430	486			J Christophe POTTIER	02:44:41	VEM	213	418	BEST TRI SAINT NAZAIRE	17:28:33	00:41:51	01:15:27	00:47:23	00:41:51	01:15:27	00:47:23
431	617			Charles NUTTENS	02:44:43	SEM	201	419	MONTFORT MERE TRI	17:28:35	00:39:27	01:18:18	00:46:56	00:39:27	01:18:18	00:46:56
432	82			Florian JAFFRE	02:44:49	SEM	202	420	TRI CLUB NANTAIS	17:28:40	00:39:38	01:16:53	00:48:17	00:39:38	01:16:53	00:48:17
433	257			Guillaume DAVID	02:44:52	SEM	203	421	LAVAL TRI CLUB	17:28:44	00:38:57	01:16:35	00:49:19	00:38:57	01:16:35	00:49:19
434	937			Marc MAILLART	02:44:54	VEM	214	422	VELIZY TRI	17:28:46	00:42:41	01:14:45	00:47:27	00:42:41	01:14:45	00:47:27
435	844			Alexandre ALATI	02:44:56	SEM	204	423	LIGUE BASSE NORMANDIE	17:28:48	00:42:22	01:12:56	00:49:37	00:42:22	01:12:56	00:49:37
436	10			Bruno THOREL	02:44:57	VEM	215	424	AIRBUS |	17:28:49	00:43:33	01:13:59	00:47:25	00:43:33	01:13:59	00:47:25
437	566			David ORIOT	02:44:58	VEM	216	425	WILD TEAM TRI	17:28:50	00:41:28	01:15:06	00:48:24	00:41:28	01:15:06	00:48:24
438	992			Jean Sebastien ARDOUIN	02:44:59	VEM	217	426	CLUB YERROIS DE TRI 91	17:28:51	00:41:00	01:15:30	00:48:29	00:41:00	01:15:30	00:48:29
439	408			Philippe CHARTIER	02:45:01	VEM	218	427	TRICEPS	17:28:53	00:41:13	01:14:25	00:49:21	00:41:13	01:14:25	00:49:21
440	669			Nicolas PREVITALI	02:45:02	SEM	205	428	PARIS	17:28:53	00:34:17	01:20:07	00:50:36	00:34:17	01:20:07	00:50:36
441	648			Bertrand GUEPRATTE	02:45:05	VEM	219	429	AS ENERGY 91 TRI	17:28:57	00:42:06	01:15:33	00:47:25	00:42:06	01:15:33	00:47:25
442	497			Tony GUIRRIEC	02:45:10	VEM	220	430	BEST TRI SAINT NAZAIRE	17:29:02	00:36:02	01:15:12	00:53:55	00:36:02	01:15:12	00:53:55
443	232			Jean Charles MORIO	02:45:17	VEM	221	431	TOBESPORT	17:29:09	00:43:34	01:14:14	00:47:27	00:43:34	01:14:14	00:47:27
444	742			Julien NIQUET	02:45:18	SEM	206	432	PARIS	17:29:10	00:41:32	01:16:07	00:47:39	00:41:32	01:16:07	00:47:39
445	188			Christophe BEDOUET	02:45:24	VEM	222	433	ASPTT ANGERS	17:29:15	00:39:18	01:13:14	00:52:52	00:39:18	01:13:14	00:52:52
446	35			Vincent BOUARD	02:45:25	SEM	207	434	TRI ATLANTIQUE CARQUEFOU	17:29:16	00:43:21	01:13:44	00:48:19	00:43:21	01:13:44	00:48:19
447	920			Nicolas JOURDAIN	02:45:39	SEM	208	435	POISSY TRI	17:29:30	00:45:18	01:12:36	00:47:44	00:45:18	01:12:36	00:47:44
448	958			Damien BICHON	02:45:45	SEM	209	436	LA ROCHE VENDEE TRI	17:29:37	00:48:25	01:13:13	00:44:06	00:48:25	01:13:13	00:44:06
449	168			Axel MAURIN	02:45:48	VEM	223	437	TRI VELOCE SAINT SEBASTIEN	17:29:39	00:39:27	01:12:44	00:53:36	00:39:27	01:12:44	00:53:36
450	891			Pierre-Yves LESCOB	02:45:49	VEM	224	438	TRIATHLON CLUB CLISSONNAIS	17:29:40	00:42:02	01:15:53	00:47:53	00:42:02	01:15:53	00:47:53
451	767			Stefan COLIN	02:45:53	VEM	225	439	NANTES	17:29:45	00:41:10	01:14:51	00:49:52	00:41:10	01:14:51	00:49:52
452	476			Matthieu LORGEOUX	02:45:55	SEM	210	440	BLAIN TRI	17:29:46	00:46:35	01:14:29	00:44:51	00:46:35	01:14:29	00:44:51
453	492			Anne LANTHIEZ	02:45:58	VEF	1	13	BEST TRI SAINT NAZAIRE	17:29:50	00:36:18	01:18:00	00:51:40	00:36:18	01:18:00	00:51:40
454	950			Marc Olivier CLAULIN	02:46:00	VEM	226	441	STADE NIORTAIS TRI	17:29:51	00:41:32	01:12:55	00:51:31	00:41:32	01:12:55	00:51:31
455	26			Stephane MALGORN	02:46:01	VEM	227	442	SAINT HERBLAIN TRI	17:29:53	00:42:04	01:12:45	00:51:11	00:42:04	01:12:45	00:51:11
456	65			Jacques DARBOIS	02:46:03	SEM	211	443	TRI CLUB NANTAIS	17:29:55	00:42:33	01:15:39	00:47:50	00:42:33	01:15:39	00:47:50
457	533			Christophe ORIEUX	02:46:04	VEM	228	444	CEPS DINAN ARMOR TRI	17:29:55	00:42:06	01:20:02	00:43:54	00:42:06	01:20:02	00:43:54
458	514			Fabrice GANACHAUD	02:46:04	VEM	229	445	ATHLETIC RETZ SUD LAC	17:29:56	00:35:59	01:14:37	00:55:28	00:35:59	01:14:37	00:55:28
459	683			Kevin GODARD	02:46:07	SEM	212	446	ARGENTEUIL	17:29:59	00:43:28	01:17:00	00:45:38	00:43:28	01:17:00	00:45:38
460	694			Jacques LAMIC	02:46:08	VEM	230	447	TRIATHLON SAINT REMY LES CHEVREUSE	17:29:59	00:40:46	01:19:58	00:45:23	00:40:46	01:19:58	00:45:23
461	1002			Francois BERA	02:46:12	SEM	213	448	PARIS	17:30:04	00:40:41	01:19:41	00:45:49	00:40:41	01:19:41	00:45:49
462	175			Philippe BUISSON	02:46:13	VEM	231	449	ANGERS TRI	17:30:05	00:37:54	01:17:14	00:51:04	00:37:54	01:17:14	00:51:04
463	981			Philippe BUCHER	02:46:14	VEM	232	450	CLUB YERROIS DE TRI 91	17:30:06	00:44:48	01:17:00	00:44:25	00:44:48	01:17:00	00:44:25
464	957			Jean Dominique SZTIMER	02:46:15	VEM	233	451	ILE DE NOIRMOUTIER TRI	17:30:07	00:42:21	01:15:30	00:48:23	00:42:21	01:15:30	00:48:23
465	44			Arnaud PIGNON	02:46:16	VEM	234	452	TRI ATLANTIQUE CARQUEFOU	17:30:07	00:42:29	01:17:06	00:46:40	00:42:29	01:17:06	00:46:40
466	505			Jean Michel CALLENS	02:46:16	VEM	235	453	BEST TRI SAINT NAZAIRE	17:30:08	00:41:23	01:15:55	00:48:57	00:41:23	01:15:55	00:48:57
467	216			Sebastien CONILLEAU	02:46:28	SEM	214	454	TOBESPORT	17:30:19	00:38:22	01:15:42	00:52:22	00:38:22	01:15:42	00:52:22
468	695			Maxime ROY	02:46:38	SEM	215	455	SAINT-NAZAIRE	17:30:30	00:35:22	01:19:58	00:51:17	00:35:22	01:19:58	00:51:17
469	880			Fabrice RANNOU	02:46:41	SEM	216	456	LIC  INDI CHAMPAGNE ARDENNE	17:30:33	00:40:23	01:16:35	00:49:42	00:40:23	01:16:35	00:49:42
470	671			Richard AGUDO	02:46:42	VEM	236	457	SUCE-SUR-ERDRE	17:30:33	00:43:37	01:14:00	00:49:04	00:43:37	01:14:00	00:49:04
471	9			Julien ROLLAND	02:46:43	SEM	217	458	AIRBUS |	17:30:34	00:38:31	01:18:30	00:49:41	00:38:31	01:18:30	00:49:41
472	769			Marc REUZE	02:46:43	VEM	237	459	BOULOGNE-BILLANCOURT	17:30:35	00:42:49	01:14:35	00:49:18	00:42:49	01:14:35	00:49:18
473	162			Etienne COLLART	02:46:45	SEM	218	460	TRI VELOCE SAINT SEBASTIEN	17:30:37	00:40:15	01:16:10	00:50:19	00:40:15	01:16:10	00:50:19
474	409			Benoit CHAVANNE	02:46:49	VEM	238	461	EPPG TRI CLUB 93	17:30:40	00:41:19	01:20:35	00:44:54	00:41:19	01:20:35	00:44:54
475	964			Franck CHAMBON	02:46:50	VEM	239	462	RVT	17:30:42	00:36:53	01:17:57	00:52:00	00:36:53	01:17:57	00:52:00
476	686			Florent BONHOMME	02:46:51	VEM	240	463	NANTES	17:30:43	00:40:58	01:16:04	00:49:47	00:40:58	01:16:04	00:49:47
477	816			Arnaud CAPP	02:46:56	SEM	219	464	PARIS	17:30:48	00:40:22	01:16:52	00:49:41	00:40:22	01:16:52	00:49:41
478	829			Mark WYATT	02:46:56	VEM	241	465	COURBEVOIE	17:30:48	00:45:01	01:16:52	00:45:02	00:45:01	01:16:52	00:45:02
479	729			Aurelien LE HOLLOCO	02:47:04	SEM	220	466	JOUY-LE-MOUTIER	17:30:56	00:36:53	01:18:07	00:52:03	00:36:53	01:18:07	00:52:03
480	76			Cedric GUILLAUD	02:47:04	VEM	242	467	TRI CLUB NANTAIS	17:30:56	00:43:52	01:18:49	00:44:22	00:43:52	01:18:49	00:44:22
481	282			Guenael RABEAU	02:47:10	SEM	221	468	ENDURANCE 72 TRI	17:31:01	00:44:24	01:15:33	00:47:12	00:44:24	01:15:33	00:47:12
482	239			Jerome VINCENT	02:47:11	SEM	222	469	TOBESPORT	17:31:03	00:42:34	01:12:01	00:52:36	00:42:34	01:12:01	00:52:36
483	202			Vincent REUNGOAT	02:47:12	SEM	223	470	CHOLET TRI	17:31:04	00:44:30	01:15:25	00:47:17	00:44:30	01:15:25	00:47:17
484	641			Philippe PLUYAUD	02:47:14	VEM	243	471	ASPTT TRI ORLEANS	17:31:06	00:45:59	01:15:15	00:45:58	00:45:59	01:15:15	00:45:58
485	532			Nicolas DELROEUX	02:47:15	SEM	224	472	EVREUX AC TRI	17:31:07	00:41:06	01:16:04	00:50:05	00:41:06	01:16:04	00:50:05
486	504			Bruno CERTENAIS	02:47:21	VEM	244	473	BEST TRI SAINT NAZAIRE	17:31:13	00:34:23	01:20:59	00:51:58	00:34:23	01:20:59	00:51:58
487	928			Cyrille TUFFIN	02:47:24	VEM	245	474	POISSY TRI	17:31:15	00:45:14	01:14:08	00:48:02	00:45:14	01:14:08	00:48:02
488	88			Tanguy LE MOULLEC	02:47:27	SEM	225	475	TRI CLUB NANTAIS	17:31:19	00:42:32	01:14:32	00:50:22	00:42:32	01:14:32	00:50:22
489	420			Guillaume HERBLAND	02:47:28	SEM	226	476	353 TRIATHLON CLUB	17:31:20	00:38:06	01:19:03	00:50:19	00:38:06	01:19:03	00:50:19
490	907			Serge PAGE	02:47:33	VEM	246	477	POMONA |	17:31:24	00:38:58	01:20:58	00:47:36	00:38:58	01:20:58	00:47:36
491	859			Ludovic THERETZ	02:47:37	SEM	227	478	HINGES LES BAUDETS	17:31:28	00:36:19	01:18:16	00:53:01	00:36:19	01:18:16	00:53:01
492	141			Louis MARCONNET	02:47:37	SEM	228	479	TRI COTE D AMOUR	17:31:28	00:39:57	01:20:48	00:46:51	00:39:57	01:20:48	00:46:51
493	214			Marc CENAC	02:47:40	VEM	247	480	TOBESPORT	17:31:32	00:43:25	01:19:24	00:44:50	00:43:25	01:19:24	00:44:50
494	1007			Maxime LENDORMY	02:47:43	SEM	229	481	TOURS	17:31:35	00:39:17	01:22:31	00:45:53	00:39:17	01:22:31	00:45:53
495	854			Christophe BOUTIN	02:47:49	VEM	248	482	SAINTE-MARIE-DE-RE	17:31:40	00:40:19	01:16:28	00:51:00	00:40:19	01:16:28	00:51:00
496	391			Philippe ROSSIGNOL	02:47:50	VEM	249	483	ENTENTE SPORTIVE NANTERRE	17:31:42	00:43:20	01:16:08	00:48:21	00:43:20	01:16:08	00:48:21
497	576			Fabien DHAINAUT	02:47:59	SEM	230	484	WILD TEAM TRI	17:31:51	00:41:17	01:18:26	00:48:15	00:41:17	01:18:26	00:48:15
498	94			Nicholas MARRA	02:48:00	VEM	250	485	TRI CLUB NANTAIS	17:31:52	00:40:17	01:16:02	00:51:40	00:40:17	01:16:02	00:51:40
499	343			Samuel BANCE	02:48:03	VEM	251	486	ROUEN TRIATHLON	17:31:55	00:38:45	01:17:11	00:52:06	00:38:45	01:17:11	00:52:06
500	712			Vincent JAUD	02:48:07	VEM	252	487	LAVAL	17:31:59	00:40:29	01:17:04	00:50:34	00:40:29	01:17:04	00:50:34
501	441			Jerome HURTADO DE MENDOSA	02:48:11	VEM	253	488	TRI ST BARTH	17:32:03	00:37:46	01:18:26	00:51:58	00:37:46	01:18:26	00:51:58
502	539			Cedric PERRIGAUD	02:48:12	VEM	254	489	LA ROCHELLE TRI	17:32:04	00:40:53	01:16:48	00:50:30	00:40:53	01:16:48	00:50:30
503	862			Marc LE SAUSSE	02:48:14	SEM	231	490	TOULOUSE TRIATHLON	17:32:06	00:39:31	01:11:11	00:57:31	00:39:31	01:11:11	00:57:31
504	619			Mathieu RIVALAIN	02:48:15	SEM	232	491	LORIENT TRI FLK	17:32:06	00:38:22	01:19:06	00:50:46	00:38:22	01:19:06	00:50:46
505	651			Yves VINCENT	02:48:16	VEM	255	492	AAS FRESNES TRI	17:32:08	00:39:52	01:16:30	00:51:53	00:39:52	01:16:30	00:51:53
506	820			Vincent NOYET	02:48:17	SEM	233	493	BEAUCOUZE	17:32:09	00:43:12	01:17:39	00:47:25	00:43:12	01:17:39	00:47:25
507	510			Christophe PREMEL	02:48:24	VEM	256	494	ATHLETIC RETZ SUD LAC	17:32:16	00:41:27	01:16:33	00:50:23	00:41:27	01:16:33	00:50:23
508	349			Dominique DALLE MOLLE	02:48:27	VEM	257	495	TRI CLUB DE VILLEPARISIS	17:32:18	00:42:03	01:19:40	00:46:42	00:42:03	01:19:40	00:46:42
509	143			David PHILIPPE	02:48:38	VEM	258	496	TRI COTE D AMOUR	17:32:30	00:37:16	01:16:28	00:54:54	00:37:16	01:16:28	00:54:54
510	579			Guillaume CAMUT	02:48:47	SEM	234	497	WILD TEAM TRI	17:32:39	00:43:30	01:18:24	00:46:53	00:43:30	01:18:24	00:46:53
511	585			Olivier JULIENNE	02:48:48	VEM	259	498	TRI COTE D EMERAUDE	17:32:39	00:36:09	01:21:20	00:51:19	00:36:09	01:21:20	00:51:19
512	215			Guillaume CHAILLOUX	02:48:53	SEM	235	499	TOBESPORT	17:32:45	00:43:31	01:19:18	00:46:03	00:43:31	01:19:18	00:46:03
513	799			Jerome DORISON	02:48:54	VEM	260	500	NANTES	17:32:45	00:38:22	01:21:49	00:48:41	00:38:22	01:21:49	00:48:41
514	544			Beatrice IKEN	02:48:56	VEF	2	14	LA ROCHELLE TRI	17:32:48	00:40:56	01:19:05	00:48:55	00:40:56	01:19:05	00:48:55
515	681			Victor POMMIER	02:48:56	SEM	236	501	TALUYERS	17:32:48	00:43:16	01:18:00	00:47:40	00:43:16	01:18:00	00:47:40
516	873			Anne-Sophie JOLLY	02:48:57	SEF	12	15	PAYS DE ST GILLES CROIX DE VIE VENDEE TRI	17:32:49	00:41:00	01:18:59	00:48:57	00:41:00	01:18:59	00:48:57
517	36			Patrice CLUIS	02:48:59	VEM	261	502	TRI ATLANTIQUE CARQUEFOU	17:32:51	00:42:01	01:13:09	00:53:49	00:42:01	01:13:09	00:53:49
518	943			Jean Marc DIEUDONNE	02:49:01	VEM	262	503	VERSAILLES TRI	17:32:52	00:41:51	01:15:24	00:51:44	00:41:51	01:15:24	00:51:44
519	913			Stephane LANOUE	02:49:06	VEM	263	504	L HAƒ-LES-ROSES	17:32:58	00:38:25	01:19:30	00:51:10	00:38:25	01:19:30	00:51:10
520	678			Gerard MEYER	02:49:09	VEM	264	505	VERTOU	17:33:00	00:38:47	01:17:14	00:53:08	00:38:47	01:17:14	00:53:08
521	901			Naim KHYARI	02:49:09	VEM	265	506	MANITOU |	17:33:01	00:41:37	01:16:05	00:51:26	00:41:37	01:16:05	00:51:26
522	246			Jean-Marie BLANCHOUIN	02:49:12	SEM	237	507	CHATEAU GONTIER TRI	17:33:04	00:46:10	01:13:43	00:49:18	00:46:10	01:13:43	00:49:18
523	46			Joel CAHIER	02:49:16	VEM	266	508	TRI CLUB CLISSONNAIS	17:33:08	00:41:23	01:13:26	00:54:26	00:41:23	01:13:26	00:54:26
524	348			Franck BUISSONNIER	02:49:19	VEM	267	509	TRI CLUB DE VILLEPARISIS	17:33:11	00:39:12	01:18:23	00:51:43	00:39:12	01:18:23	00:51:43
525	879			Xavier LE BOT	02:49:22	VEM	268	510	USA TRIATHLON	17:33:14	00:40:54	01:20:17	00:48:10	00:40:54	01:20:17	00:48:10
526	296			Mickael GONSARD	02:49:23	VEM	269	511	MAT 72  LE MANS ASSOCIATION TRIA	17:33:15	00:38:51	01:17:42	00:52:49	00:38:51	01:17:42	00:52:49
527	606			Laurent BABEY	02:49:34	VEM	270	512	RACING MULTI ATHLON	17:33:26	00:40:46	01:19:22	00:49:25	00:40:46	01:19:22	00:49:25
528	396			Alain LOULIGI	02:49:34	VEM	271	513	ISSY TRI	17:33:26	00:40:42	01:14:58	00:53:53	00:40:42	01:14:58	00:53:53
529	17			Marc PAYRAUDEAU	02:49:35	VEM	272	514	SAINT HERBLAIN TRI	17:33:27	00:44:13	01:13:55	00:51:25	00:44:13	01:13:55	00:51:25
530	389			Ludovic JOLY	02:49:37	VEM	273	515	ENTENTE SPORTIVE NANTERRE	17:33:29	00:44:50	01:14:18	00:50:28	00:44:50	01:14:18	00:50:28
531	737			Simon NIEL	02:49:44	SEM	238	516		17:33:35	00:42:50	01:22:20	00:44:32	00:42:50	01:22:20	00:44:32
532	185			Olivier GOULARD	02:49:53	VEM	274	517	ANJOU TRI TRELAZE	17:33:45	00:39:52	01:15:36	00:54:24	00:39:52	01:15:36	00:54:24
533	633			Gwenhael DOBELI	02:49:54	VEF	3	16	CA VILLENAVE D ORNON TRI	17:33:46	00:38:50	01:15:54	00:55:09	00:38:50	01:15:54	00:55:09
534	458			Laurent BRANGEON	02:49:55	VEM	275	518	PAYS D ANCENIS CLUB TRI 44	17:33:47	00:41:34	01:13:39	00:54:41	00:41:34	01:13:39	00:54:41
535	353			Philippe PLUNIAN	02:50:05	VEM	276	519	TRI CLUB DE VILLEPARISIS	17:33:56	00:46:30	01:21:05	00:42:29	00:46:30	01:21:05	00:42:29
536	123			Kim Denis DANAIS	02:50:08	VEM	277	520	TRI COTE D AMOUR	17:34:00	00:39:36	01:12:34	00:57:57	00:39:36	01:12:34	00:57:57
537	962			Christophe NASSIVET	02:50:09	VEM	278	521	LA ROCHE VENDEE TRI	17:34:01	00:43:46	01:17:03	00:49:20	00:43:46	01:17:03	00:49:20
538	1012			Laurent CHEBRET	02:50:14	VEM	279	522	SAINT-DENIS-EN-VAL	17:34:06	00:44:46	01:17:03	00:48:24	00:44:46	01:17:03	00:48:24
539	647			Sebastien HUDUT	02:50:15	SEM	239	523	AS ENERGY 91 TRI	17:34:06	00:45:16	01:15:04	00:49:54	00:45:16	01:15:04	00:49:54
540	152			Eric TESSIER	02:50:18	VEM	280	524	TRI COTE D AMOUR	17:34:09	00:40:26	01:14:02	00:55:49	00:40:26	01:14:02	00:55:49
541	211			Maxime BUHAN	02:50:22	SEM	240	525	TOBESPORT	17:34:14	00:43:35	01:15:54	00:50:53	00:43:35	01:15:54	00:50:53
542	883			Florian MICHEL	02:50:26	SEM	241	526	LEMAN TRIATHLON CLUB	17:34:17	00:33:53	01:17:56	00:58:35	00:33:53	01:17:56	00:58:35
543	616			Carole THOUE	02:50:30	SEF	13	17	MONTFORT MERE TRI	17:34:22	00:43:10	01:14:18	00:53:01	00:43:10	01:14:18	00:53:01
544	342			Eloise MONNIER	02:50:31	SEF	14	18	ROUEN TRI	17:34:23	00:42:11	01:19:07	00:49:12	00:42:11	01:19:07	00:49:12
545	569			Damien LETESSIER	02:50:35	SEM	242	527	WILD TEAM TRI	17:34:27	00:42:47	01:15:51	00:51:56	00:42:47	01:15:51	00:51:56
546	940			Jean Pierre POTIER	02:50:38	VEM	281	528	VELIZY TRI	17:34:30	00:42:09	01:12:36	00:55:52	00:42:09	01:12:36	00:55:52
547	506			Cyrille BRIAND	02:50:41	VEM	282	529	BEST TRI SAINT NAZAIRE	17:34:32	00:41:59	01:17:02	00:51:39	00:41:59	01:17:02	00:51:39
548	126			Alain EGEE	02:50:44	VEM	283	530	TRI COTE D AMOUR	17:34:35	00:44:12	01:09:14	00:57:17	00:44:12	01:09:14	00:57:17
549	405			Jean Christophe AUDE	02:50:46	VEM	284	531	MEUDON TRI	17:34:38	00:37:57	01:18:38	00:54:11	00:37:57	01:18:38	00:54:11
550	961			Elfrid MOYON	02:50:51	VEF	4	19	LA ROCHE VENDEE TRI	17:34:42	00:41:33	01:18:25	00:50:51	00:41:33	01:18:25	00:50:51
551	773			Ludovic BOCQUIER	02:50:51	SEM	243	532	LA CHAPELLE-SUR-ERDRE	17:34:42	00:42:59	01:19:56	00:47:54	00:42:59	01:19:56	00:47:54
552	13			Raoul PRELY	02:50:52	SEM	244	533	NANTES	17:34:44	00:35:45	01:21:44	00:53:22	00:35:45	01:21:44	00:53:22
553	676			Fabien BACHIR	02:50:54	SEM	245	534	SAINT-GERMAIN-DE-LA-GRANGE	17:34:46	00:32:44	01:21:27	00:56:43	00:32:44	01:21:27	00:56:43
554	294			Nicolas FONTENEAU	02:50:55	VEM	285	535	MAT 72  LE MANS ASSOCIATION TRIA	17:34:47	00:39:42	01:20:18	00:50:53	00:39:42	01:20:18	00:50:53
555	22			Benoit GOURE	02:51:03	VEM	286	536	SAINT HERBLAIN TRI	17:34:55	00:39:02	01:17:53	00:54:08	00:39:02	01:17:53	00:54:08
556	411			Nina NICOLAS	02:51:11	SEF	15	20	EPPG TRI CLUB 93	17:35:02	00:41:17	01:19:23	00:50:30	00:41:17	01:19:23	00:50:30
557	412			Arnaud TORA	02:51:11	SEM	246	537	EPPG TRI CLUB 93	17:35:03	00:31:47	01:28:53	00:50:30	00:31:47	01:28:53	00:50:30
558	318			Caroline PRIGENT	02:51:22	SEF	16	21	PARIS SPORT CLUB	17:35:13	00:40:24	01:19:24	00:51:32	00:40:24	01:19:24	00:51:32
559	484			Catherine ROUGERON	02:51:22	VEF	5	22	BEST TRI SAINT NAZAIRE	17:35:14	00:41:11	01:19:00	00:51:11	00:41:11	01:19:00	00:51:11
560	47			Vincent DENIAUD	02:51:28	VEM	287	538	TRI CLUB CLISSONNAIS	17:35:20	00:40:19	01:15:35	00:55:32	00:40:19	01:15:35	00:55:32
561	614			Gregoire MAHE	02:51:32	SEM	247	539	NOGENT SOLIDARITE TRI	17:35:24	00:36:41	01:20:07	00:54:43	00:36:41	01:20:07	00:54:43
562	154			Olivia THEAUD	02:51:45	VEF	6	23	TRI COTE D AMOUR	17:35:37	00:40:13	01:21:41	00:49:50	00:40:13	01:21:41	00:49:50
563	702			Pierrick GEORGE	02:51:52	SEM	248	540	VALEO ANGERS	17:35:43	00:40:01	01:18:01	00:53:49	00:40:01	01:18:01	00:53:49
564	635			Valerie CHEMINEAU RAGON	02:52:02	VEF	7	24	CA VILLENAVE D ORNON TRI	17:35:53	00:39:40	01:20:07	00:52:14	00:39:40	01:20:07	00:52:14
565	120			Julien BODIGUEL	02:52:06	VEM	288	541	TRI COTE D AMOUR	17:35:58	00:38:15	01:19:14	00:54:36	00:38:15	01:19:14	00:54:36
566	19			Gilles DUFLOUX	02:52:10	VEM	289	542	SAINT HERBLAIN TRI	17:36:02	00:49:45	01:17:43	00:44:42	00:49:45	01:17:43	00:44:42
567	791			Jean-Christophe TANGUY	02:52:11	SEM	249	543	NANTES	17:36:03	00:40:34	01:25:54	00:45:42	00:40:34	01:25:54	00:45:42
568	938			Pascal NADON	02:52:18	VEM	290	544	VELIZY TRI	17:36:10	00:42:10	01:15:27	00:54:40	00:42:10	01:15:27	00:54:40
569	933			Malik ADELL	02:52:22	VEM	291	545	VELIZY TRI	17:36:13	00:42:11	01:15:37	00:54:33	00:42:11	01:15:37	00:54:33
570	830			Duncan LOW	02:52:25	VEM	292	546	COURBEVOIE	17:36:17	00:40:57	01:16:38	00:54:49	00:40:57	01:16:38	00:54:49
571	50			Jean Gael ARZUR	02:52:32	SEM	250	547	TRI CLUB NANTAIS	17:36:23	00:44:00	01:18:43	00:49:47	00:44:00	01:18:43	00:49:47
572	881			Abdel ELHAJOUI	02:52:38	SEM	251	548	PARIS	17:36:30	00:37:52	01:23:24	00:51:21	00:37:52	01:23:24	00:51:21
573	471			Benoit POTTIER	02:52:47	VEM	293	549	BOUGUENAIS CLUB TRI	17:36:39	00:35:54	01:24:59	00:51:53	00:35:54	01:24:59	00:51:53
574	892			Antoine ETOUBLEAU	02:52:47	SEM	252	550	USA TRIATHLON	17:36:39	00:43:06	01:20:17	00:49:23	00:43:06	01:20:17	00:49:23
575	898			Valerie CATHRIN	02:52:57	VEF	8	25	MANITOU |	17:36:48	00:45:50	01:14:02	00:53:04	00:45:50	01:14:02	00:53:04
576	902			Laurent CUVELIER	02:52:57	SEM	253	551	TOBESPORT CORSICA MANITOU |	17:36:49	00:43:38	01:21:17	00:48:01	00:43:38	01:21:17	00:48:01
577	610			Charlotte HELLE	02:53:10	JUF	2	26	OLYMPIQUE CLUB CESSONNAIS DE NATATION	17:37:02	00:40:37	01:19:22	00:53:10	00:40:37	01:19:22	00:53:10
578	804			Guenole AUMONT	02:53:10	SEM	254	552	PARIS	17:37:02	00:43:04	01:16:39	00:53:26	00:43:04	01:16:39	00:53:26
579	2			Danielle DEPOUET	02:53:13	VEF	9	27	SAINT HERBLAIN TRI CONSEIL DEPARTEMENTAL |	17:37:05	00:42:13	01:20:05	00:50:55	00:42:13	01:20:05	00:50:55
580	217			Thomas CORNE-VINEY	02:53:15	SEM	255	553	TOBESPORT	17:37:07	00:44:09	01:22:33	00:46:33	00:44:09	01:22:33	00:46:33
581	661			Christophe GALLET	02:53:28	VEM	294	554	PLESSIS ROBINSON	17:37:19	00:40:50	01:20:25	00:52:12	00:40:50	01:20:25	00:52:12
582	594			Geraldine TIZON	02:53:28	SEF	17	28	SAINT GREGOIRE TRI	17:37:20	00:38:55	01:24:07	00:50:25	00:38:55	01:24:07	00:50:25
583	600			Mathieu NAUDIN	02:53:33	SEM	256	555	RACING MULTI ATHLON	17:37:24	00:38:36	01:21:19	00:53:37	00:38:36	01:21:19	00:53:37
584	461			Sebastien CONTE	02:53:34	VEM	295	556	NANTES TRI	17:37:26	00:43:08	01:23:27	00:46:59	00:43:08	01:23:27	00:46:59
585	49			Jacky ARNAUD	02:53:39	VEM	296	557	TRI CLUB NANTAIS	17:37:30	00:43:22	01:18:39	00:51:37	00:43:22	01:18:39	00:51:37
586	56			Natacha BRODIN	02:53:41	SEF	18	29	TRI CLUB NANTAIS	17:37:32	00:36:15	01:24:53	00:52:31	00:36:15	01:24:53	00:52:31
587	229			Florian KUNG	02:53:49	SEM	257	558	TOBESPORT	17:37:40	00:38:53	01:22:19	00:52:35	00:38:53	01:22:19	00:52:35
588	852			Jacques DIDIER	02:53:49	VEM	297	559	ANTONY NATATION SECTION TRIATHLON	17:37:41	00:43:43	01:18:12	00:51:53	00:43:43	01:18:12	00:51:53
589	719			Olivier DOMAIGNE	02:53:49	VEM	298	560	RACC TRIATHLON NANTES	17:37:41	00:44:08	01:19:02	00:50:39	00:44:08	01:19:02	00:50:39
590	43			Sylvain MORICE	02:53:53	VEM	299	561	TRI ATLANTIQUE CARQUEFOU	17:37:45	00:44:06	01:16:50	00:52:56	00:44:06	01:16:50	00:52:56
591	969			Marcel AVERTY	02:53:53	VEM	300	562	ST JEAN DE MONTS VENDEE TRI ATHLETISME	17:37:45	00:40:24	01:21:50	00:51:38	00:40:24	01:21:50	00:51:38
592	218			Cyrille DE L EPINE	02:53:58	VEM	301	563	TOBESPORT	17:37:50	00:40:33	01:20:34	00:52:50	00:40:33	01:20:34	00:52:50
593	228			Christine JAMES	02:54:03	VEF	10	30	TOBESPORT	17:37:55	00:38:53	01:25:45	00:49:25	00:38:53	01:25:45	00:49:25
594	414			Pascal MAILLY	02:54:04	VEM	302	564	TRI SANNOIS FRANCONVILLE	17:37:55	00:43:39	01:16:30	00:53:54	00:43:39	01:16:30	00:53:54
595	87			Mathieu LE MASNE	02:54:14	VEM	303	565	TRI CLUB NANTAIS	17:38:06	99:99:99	02:04:10	00:50:04	99:99:99	02:04:10	00:50:04
596	53			Paul BEBON	02:54:19	SEM	258	566	TRI CLUB NANTAIS	17:38:11	00:35:27	01:19:07	00:59:44	00:35:27	01:19:07	00:59:44
597	739			Thomas ROSENSTIEHL	02:54:26	SEM	259	567	CRAN-GEVRIER	17:38:18	00:46:34	01:18:01	00:49:50	00:46:34	01:18:01	00:49:50
598	658			Annie PEDRONO	02:54:27	VEF	11	31	TRIATHLON CLUB LOCMINE	17:38:19	00:41:52	01:26:26	00:46:08	00:41:52	01:26:26	00:46:08
599	205			Jerome HAUTTEMENT	02:54:35	VEM	304	568	SAUMUR TEAM TRI	17:38:27	00:44:15	01:15:44	00:54:36	00:44:15	01:15:44	00:54:36
600	374			Justine CHAPUIS	02:54:43	SEF	19	32	COURBEVOIE TRI	17:38:35	00:42:18	01:21:03	00:51:21	00:42:18	01:21:03	00:51:21
601	68			Francois-Xavier DURAND	02:54:43	VEM	305	569	TRI CLUB NANTAIS	17:38:35	00:43:11	01:20:33	00:50:59	00:43:11	01:20:33	00:50:59
602	748			Ludovic COUVRAND	02:54:57	SEM	260	570	O CLUB LA BAULE	17:38:49	00:44:44	01:17:18	00:52:54	00:44:44	01:17:18	00:52:54
603	675			Arnaud SEVE	02:55:02	SEM	261	571	FONTENAY-AUX-ROSES	17:38:54	00:39:19	01:20:25	00:55:18	00:39:19	01:20:25	00:55:18
604	51			Thibaud BAGLAND	02:55:05	SEM	262	572	TRI CLUB NANTAIS	17:38:56	00:43:03	01:19:31	00:52:30	00:43:03	01:19:31	00:52:30
605	322			Anne COULONDRE	02:55:08	VEF	12	33	STADE FRANCAIS	17:39:00	00:42:34	01:21:46	00:50:47	00:42:34	01:21:46	00:50:47
606	122			Armand Philippe CHERRUAU	02:55:13	VEM	306	573	TRI COTE D AMOUR	17:39:05	00:45:02	01:19:55	00:50:14	00:45:02	01:19:55	00:50:14
607	708			Arnaud COULON	02:55:13	VEM	307	574	NANTES	17:39:05	00:46:45	01:15:13	00:53:15	00:46:45	01:15:13	00:53:15
608	597			Laurent GAILLARD	02:55:16	VEM	308	575	SAINT GREGOIRE TRI	17:39:08	00:39:34	01:19:21	00:56:21	00:39:34	01:19:21	00:56:21
609	206			Jeremie THIEVIN	02:55:18	SEM	263	576	SEGRE ESSHA TRI	17:39:09	00:43:41	01:21:01	00:50:35	00:43:41	01:21:01	00:50:35
610	59			Xavier PELLOQUIN	02:55:30	SEM	264	577	TRI CLUB NANTAIS	17:39:21	00:37:55	01:22:57	00:54:37	00:37:55	01:22:57	00:54:37
611	295			Serge GOHIER	02:55:32	VEM	309	578	MAT 72  LE MANS ASSOCIATION TRIA	17:39:24	00:42:05	01:17:49	00:55:37	00:42:05	01:17:49	00:55:37
612	1006			Pierre MICHALOWSKI	02:55:35	VEM	310	579	ESPERANCE CHARTRES DE BRETAGNE	17:39:26	00:43:47	01:16:56	00:54:51	00:43:47	01:16:56	00:54:51
613	422			Olivier BERTONNIER	02:55:36	VEM	311	580	ASTC THALES	17:39:28	00:43:28	01:22:06	00:50:02	00:43:28	01:22:06	00:50:02
614	256			Jerome CHERRUAULT	02:55:44	VEM	312	581	LAVAL TRI CLUB	17:39:35	00:44:05	01:21:56	00:49:42	00:44:05	01:21:56	00:49:42
615	871			Antoine DEVILLERS	02:55:52	SEM	265	582	TNT EZANVILLE	17:39:43	00:41:29	01:25:21	00:49:01	00:41:29	01:25:21	00:49:01
616	432			Sterenn DANIEL	02:55:56	SEF	20	34	TEAM CONCARNEAU TRIATHLON	17:39:48	00:42:25	01:21:39	00:51:52	00:42:25	01:21:39	00:51:52
617	37			Loic EHANNO	02:55:58	VEM	313	583	TRI ATLANTIQUE CARQUEFOU	17:39:50	00:39:04	01:27:22	00:49:31	00:39:04	01:27:22	00:49:31
618	895			Etienne GUERCHE	02:56:07	SEM	266	584	TOURS	17:39:58	00:46:28	01:20:07	00:49:30	00:46:28	01:20:07	00:49:30
619	915			Stephane ARBLADE	02:56:09	VEM	314	585	POISSY TRI	17:40:01	00:47:37	01:14:02	00:54:29	00:47:37	01:14:02	00:54:29
620	48			Yann LEMOINE	02:56:09	SEM	267	586	TRI CLUB CLISSONNAIS	17:40:01	00:35:53	01:22:33	00:57:43	00:35:53	01:22:33	00:57:43
621	75			Cedric GUEGAN	02:56:12	SEM	268	587	TRI CLUB NANTAIS	17:40:03	00:43:03	01:22:24	00:50:43	00:43:03	01:22:24	00:50:43
622	426			Lambert DESCOTTES	02:56:16	SEM	269	588	E  C  SARTROUVILLE	17:40:08	00:43:26	01:29:53	00:42:57	00:43:26	01:29:53	00:42:57
623	582			David ROBINET	02:56:17	SEM	270	589	TUVB TRI	17:40:08	00:45:58	01:21:47	00:48:30	00:45:58	01:21:47	00:48:30
624	558			Coralie GOMES	02:56:20	SEF	21	35	YPRL SAINT CYR TRI	17:40:11	00:43:51	01:25:02	00:47:26	00:43:51	01:25:02	00:47:26
625	196			Sandrine SUZANNE	02:56:24	VEF	13	36	ASPTT ANGERS	17:40:16	00:44:33	01:22:02	00:49:48	00:44:33	01:22:02	00:49:48
626	800			Jocelyn ALLAIRE	02:56:32	VEM	315	590	PARIS	17:40:24	00:47:03	01:22:04	00:47:25	00:47:03	01:22:04	00:47:25
627	89			Camille LEBUGLE	02:56:43	SEM	271	591	TRI CLUB NANTAIS	17:40:35	00:42:06	01:20:30	00:54:06	00:42:06	01:20:30	00:54:06
628	45			Jean-Michel WATTEBLED	02:56:55	VEM	316	592	TRI ATLANTIQUE CARQUEFOU	17:40:47	00:46:14	01:22:38	00:48:02	00:46:14	01:22:38	00:48:02
629	707			Matthieu JOUBERT	02:56:58	SEM	272	593	NANTES	17:40:50	00:42:00	01:26:06	00:48:52	00:42:00	01:26:06	00:48:52
630	931			Jean-Marc LEGENTIL	02:57:01	VEM	317	594	TRI CLUB ST QUENTIN EN YVEL	17:40:53	00:41:43	01:25:17	00:50:00	00:41:43	01:25:17	00:50:00
631	149			Claude SEZNEC	02:57:03	VEF	14	37	TRI COTE D AMOUR	17:40:54	00:41:04	01:20:53	00:55:05	00:41:04	01:20:53	00:55:05
632	238			Philippe TALAUD	02:57:03	SEM	273	595	TOBESPORT	17:40:55	00:39:11	01:23:42	00:54:09	00:39:11	01:23:42	00:54:09
633	41			Gaetan LELOUP	02:57:04	VEM	318	596	TRI ATLANTIQUE CARQUEFOU	17:40:56	00:45:19	01:26:40	00:45:04	00:45:19	01:26:40	00:45:04
634	858			Niels GOMONT	02:57:04	SEM	274	597	PARIS	17:40:56	00:46:53	01:22:47	00:47:23	00:46:53	01:22:47	00:47:23
635	990			Virginie PELLETIER	02:57:07	SEF	22	38	CLUB YERROIS DE TRI 91	17:40:59	00:40:31	01:21:45	00:54:50	00:40:31	01:21:45	00:54:50
636	80			Yannick HUIBAN	02:57:08	VEM	319	598	TRI CLUB NANTAIS	17:40:59	00:44:41	01:22:21	00:50:05	00:44:41	01:22:21	00:50:05
637	668			Jerome BOIVENT	02:57:09	SEM	275	599	DERVAL	17:41:01	00:44:16	01:22:50	00:50:03	00:44:16	01:22:50	00:50:03
638	626			Philippe BOUVET	02:57:14	VEM	320	600	IRON SPORT BORDEAUX	17:41:06	00:47:10	01:17:19	00:52:44	00:47:10	01:17:19	00:52:44
639	634			Marie Christine DELILLE	02:57:14	VEF	15	39	CA VILLENAVE D ORNON TRI	17:41:06	00:41:49	01:22:40	00:52:45	00:41:49	01:22:40	00:52:45
640	749			Guillaume LE MOUILLOUR	02:57:16	SEM	276	601	VANNES	17:41:08	00:37:21	01:24:48	00:55:06	00:37:21	01:24:48	00:55:06
641	503			Franck CHEVAL	02:57:20	VEM	321	602	BEST TRI SAINT NAZAIRE	17:41:12	00:42:02	01:20:05	00:55:11	00:42:02	01:20:05	00:55:11
642	165			Alban DRUBIGNY	02:57:37	VEM	322	603	TRI VELOCE SAINT SEBASTIEN	17:41:29	00:42:40	01:18:55	00:56:01	00:42:40	01:18:55	00:56:01
643	150			Philippe TABOURDEAU CARPENTIE	02:57:38	VEM	323	604	TRI COTE D AMOUR	17:41:30	00:41:49	01:19:30	00:56:17	00:41:49	01:19:30	00:56:17
644	300			Laurent PORCHER	02:57:43	VEM	324	605	MAT 72  LE MANS ASSOCIATION TRIA	17:41:34	00:45:48	01:15:47	00:56:07	00:45:48	01:15:47	00:56:07
645	567			Edouard NUTTIN	02:57:47	SEM	277	606	WILD TEAM TRI	17:41:39	00:38:20	01:25:46	00:53:40	00:38:20	01:25:46	00:53:40
646	587			Stephane MAURER	02:57:47	VEM	325	607	TOBESPORT CORSICA	17:41:39	00:43:33	01:18:17	00:55:56	00:43:33	01:18:17	00:55:56
647	778			Philippe AUDUREAU	02:57:50	VEM	326	608	LA CHAPELLE-SUR-ERDRE	17:41:41	00:42:18	01:27:34	00:47:57	00:42:18	01:27:34	00:47:57
648	1000			Franck POTIER	02:58:06	VEM	327	609	PESSAC AVENTURE TRIATHLON	17:41:57	00:39:58	01:21:35	00:56:32	00:39:58	01:21:35	00:56:32
649	25			Yohann LE MAGUERESSE	02:58:13	SEM	278	610	SAINT HERBLAIN TRI	17:42:05	00:52:37	01:25:48	00:39:47	00:52:37	01:25:48	00:39:47
650	568			Didier MORISSEAU	02:58:20	VEM	328	611	WILD TEAM TRI	17:42:12	00:44:38	01:20:58	00:52:43	00:44:38	01:20:58	00:52:43
651	710			Romain SAUTRAU	02:58:32	SEM	279	612	PARIS	17:42:24	00:42:21	01:28:57	00:47:13	00:42:21	01:28:57	00:47:13
652	470			Sebastien PRIMAULT	02:58:39	SEM	280	613	BOUGUENAIS CLUB TRI	17:42:30	00:44:41	01:22:03	00:51:54	00:44:41	01:22:03	00:51:54
653	1029			Guillaume TEN HAVE	02:58:41	SEM	281	614	LEVALLOIS-PERRET	17:42:33	00:38:14	01:26:26	00:54:00	00:38:14	01:26:26	00:54:00
654	480			Michel BERTRAND	02:58:41	VEM	329	615	BLAIN TRI	17:42:33	00:43:55	01:18:30	00:56:16	00:43:55	01:18:30	00:56:16
655	55			Jean Claude BREARD	02:59:13	VEM	330	616	TRI CLUB NANTAIS	17:43:05	00:44:32	01:22:44	00:51:57	00:44:32	01:22:44	00:51:57
656	763			Marc WERKLING	02:59:28	VEM	331	617	SAINT-ANDRE-DE-CUBZAC	17:43:19	00:46:10	01:22:42	00:50:35	00:46:10	01:22:42	00:50:35
657	280			Dimitry LALOYER	02:59:33	VEM	332	618	ENDURANCE 72 TRI	17:43:25	00:41:56	01:20:39	00:56:57	00:41:56	01:20:39	00:56:57
658	397			Hugues MAC CARTHY	02:59:37	SEM	282	619	ISSY TRI	17:43:29	00:40:35	01:20:25	00:58:36	00:40:35	01:20:25	00:58:36
659	777			Clement YBERT	02:59:40	SEM	283	620	RAMBOUILLET	17:43:32	00:46:26	01:22:11	00:51:02	00:46:26	01:22:11	00:51:02
660	792			Benedicte BERNE	02:59:44	VEF	16	40	VERNOUILLET	17:43:35	00:41:19	01:23:18	00:55:05	00:41:19	01:23:18	00:55:05
661	917			Magali GEOFFROY	02:59:57	VEF	17	41	POISSY TRI	17:43:49	00:50:17	01:25:33	00:44:07	00:50:17	01:25:33	00:44:07
662	738			Claudio NAPOLITANO	02:59:59	VEM	333	621	#BOOSTBIRHAKEIM	17:43:51	00:42:37	01:23:51	00:53:30	00:42:37	01:23:51	00:53:30
663	758			Igor BOUTROU	03:00:14	SEM	284	622	METZ	17:44:06	00:43:51	01:23:34	00:52:49	00:43:51	01:23:34	00:52:49
664	757			Geoffrey BRANDY	03:00:15	SEM	285	623	PARIS	17:44:07	00:45:10	01:21:24	00:53:41	00:45:10	01:21:24	00:53:41
665	286			Stephane BLOT	03:00:20	VEM	334	624	MAT 72  LE MANS ASSOCIATION TRIA	17:44:11	00:49:44	01:17:26	00:53:09	00:49:44	01:17:26	00:53:09
666	421			Stephane MOUSSU	03:00:29	VEM	335	625	353 TRIATHLON CLUB	17:44:21	00:44:27	01:20:48	00:55:12	00:44:27	01:20:48	00:55:12
667	199			Philippe EYHORN	03:00:29	VEM	336	626	CHOLET TRI	17:44:21	00:45:21	01:22:37	00:52:30	00:45:21	01:22:37	00:52:30
668	378			Nicolas HELIE	03:00:30	SEM	286	627	COURBEVOIE TRI	17:44:22	00:45:16	01:19:47	00:55:26	00:45:16	01:19:47	00:55:26
669	687			Vincent CHANIOLLEAU	03:00:32	SEM	287	628	VERSAILLES	17:44:23	00:38:53	01:29:17	00:52:21	00:38:53	01:29:17	00:52:21
670	867			Jeremy DIAZ	03:00:35	SEM	288	629	SAINT-MAUR-DES-FOSSES	17:44:27	00:44:57	01:30:14	00:45:24	00:44:57	01:30:14	00:45:24
671	403			Claire HURLET	03:00:39	SEF	23	42	LEVALLOIS TRI	17:44:31	00:38:56	01:27:56	00:53:46	00:38:56	01:27:56	00:53:46
672	761			Aurelien DIOT	03:00:41	SEM	289	630	PARIS	17:44:33	00:40:47	01:28:09	00:51:44	00:40:47	01:28:09	00:51:44
673	388			Caroline VAREE	03:00:41	SEF	24	43	COURBEVOIE TRIATHLON	17:44:33	00:44:23	01:24:54	00:51:24	00:44:23	01:24:54	00:51:24
674	406			Bastien BARNABE	03:00:52	SEM	290	631	MEUDON TRI	17:44:44	00:41:55	01:24:47	00:54:09	00:41:55	01:24:47	00:54:09
675	894			Antoine SOULIER	03:00:55	VEM	337	632	WOLF CLUB TRIATHLON	17:44:47	00:43:27	01:21:26	00:56:01	00:43:27	01:21:26	00:56:01
676	212			Alexandre CARPENTIER	03:00:56	VEM	338	633	TOBESPORT	17:44:48	00:44:22	01:25:30	00:51:03	00:44:22	01:25:30	00:51:03
677	283			Alexandre REMOND	03:01:03	SEM	291	634	ENDURANCE 72 TRI	17:44:55	00:40:33	01:26:55	00:53:35	00:40:33	01:26:55	00:53:35
678	899			Sebastian FROISSARD	03:01:05	VEM	339	635	MANITOU |	17:44:57	00:42:47	01:29:03	00:49:15	00:42:47	01:29:03	00:49:15
679	711			Christophe MASQUEREL	03:01:07	VEM	340	636	OCTEVILLE-SUR-MER	17:44:59	00:45:06	01:24:09	00:51:52	00:45:06	01:24:09	00:51:52
680	715			Franck SADMI	03:01:08	SEM	292	637	SAINT-MAUR-DES-FOSSES	17:45:00	00:42:29	01:26:25	00:52:14	00:42:29	01:26:25	00:52:14
681	577			Paul-Henri CHOPIN	03:01:09	SEM	293	638	WILD TEAM TRI	17:45:01	00:44:07	01:22:50	00:54:12	00:44:07	01:22:50	00:54:12
682	788			Guillaume PLACIER	03:01:19	SEM	294	639	SAINT-JULIEN-DE-CONCELLES	17:45:11	00:49:30	01:18:34	00:53:14	00:49:30	01:18:34	00:53:14
683	127			Alexandra FOUCRET	03:01:19	SEF	25	44	TRI COTE D AMOUR	17:45:11	00:44:42	01:23:53	00:52:43	00:44:42	01:23:53	00:52:43
684	384			Bruno PELLERIN	03:01:30	VEM	341	640	COURBEVOIE TRI	17:45:21	00:44:59	01:23:17	00:53:13	00:44:59	01:23:17	00:53:13
685	753			Frederic MAZOYER	03:01:37	VEM	342	641	LANDEVIEILLE	17:45:28	00:43:54	01:18:18	00:59:24	00:43:54	01:18:18	00:59:24
686	663			Michele FELIX	03:01:49	VEF	18	45	LA BRIE FRANCILIENNE TRIATHLON	17:45:41	00:47:34	01:24:12	00:50:03	00:47:34	01:24:12	00:50:03
687	554			Arnaud PAIN	03:01:53	VEM	343	642	ANTIBES TRI	17:45:45	00:43:22	01:23:29	00:55:01	00:43:22	01:23:29	00:55:01
688	842			Eric PAUMERAT	03:02:19	VEM	344	643	LEVALLOIS-PERRET	17:46:10	00:42:42	01:25:01	00:54:35	00:42:42	01:25:01	00:54:35
689	209			Philippe BARDY	03:02:29	VEM	345	644	TOBESPORT	17:46:21	00:45:56	01:22:43	00:53:50	00:45:56	01:22:43	00:53:50
690	870			Julien COURBERAND	03:02:32	SEM	295	645	TRI LION BELFORT	17:46:23	00:44:32	01:22:29	00:55:30	00:44:32	01:22:29	00:55:30
691	312			Jean-Baptiste KOPECKY	03:02:33	SEM	296	646	CLUB DES NAGEURS DE PARIS	17:46:25	00:37:45	01:23:38	01:01:10	00:37:45	01:23:38	01:01:10
692	833			Catherine REMY	03:02:39	SEF	26	46	PARIS	17:46:30	00:42:43	01:29:47	00:50:08	00:42:43	01:29:47	00:50:08
693	885			Sebastien BERRET	03:02:40	VEM	346	647	PARIS	17:46:32	00:55:22	01:14:20	00:52:57	00:55:22	01:14:20	00:52:57
694	697			Laurent SZYDA	03:02:51	VEM	347	648	COURIR A LAILLE	17:46:43	00:47:27	01:26:06	00:49:17	00:47:27	01:26:06	00:49:17
695	193			Thierry LALLERON	03:02:55	VEM	348	649	ASPTT ANGERS	17:46:47	00:42:11	01:19:11	01:01:33	00:42:11	01:19:11	01:01:33
696	682			Olivier EGLEM	03:03:08	SEM	297	650	PARIS	17:47:00	00:44:15	01:28:18	00:50:34	00:44:15	01:28:18	00:50:34
697	578			Yves Noel CHAPUT	03:03:10	VEM	349	651	WILD TEAM TRI	17:47:02	00:53:15	01:25:54	00:44:00	00:53:15	01:25:54	00:44:00
698	916			Nadine BIGOT	03:03:18	VEF	19	47	POISSY TRI	17:47:09	00:41:31	01:28:26	00:53:19	00:41:31	01:28:26	00:53:19
699	1022			Patrick GUERIF	03:03:33	VEM	350	652		17:47:25	00:45:51	01:23:14	00:54:28	00:45:51	01:23:14	00:54:28
700	350			Francis DUBOIS	03:03:36	VEM	351	653	TRI CLUB DE VILLEPARISIS	17:47:28	00:50:42	01:26:01	00:46:53	00:50:42	01:26:01	00:46:53
701	590			Eric GABALDA	03:03:39	VEM	352	654	SO HOUILLES TRI	17:47:30	00:46:39	01:18:55	00:58:04	00:46:39	01:18:55	00:58:04
702	740			Come FORZY	03:03:43	SEM	298	655	LILLE	17:47:35	00:42:53	01:27:44	00:53:05	00:42:53	01:27:44	00:53:05
703	176			Emmanuel COLLIN	03:03:48	VEM	353	656	ANGERS TRI	17:47:40	00:42:34	01:20:31	01:00:42	00:42:34	01:20:31	01:00:42
704	365			Francois JEANNIN	03:03:49	SEM	299	657	ATHLETIC CLUB BOULOGNE BILLANCOURT	17:47:40	00:36:13	01:27:27	01:00:08	00:36:13	01:27:27	01:00:08
705	735			Maxime FRIN	03:03:51	SEM	300	658	ECHIRE	17:47:42	00:46:39	01:22:24	00:54:48	00:46:39	01:22:24	00:54:48
706	32			Fabrice ALIGAND	03:03:53	VEM	354	659	TRI ATLANTIQUE CARQUEFOU	17:47:44	00:43:17	01:22:21	00:58:14	00:43:17	01:22:21	00:58:14
707	586			Vincent TIGNON	03:03:56	VEM	355	660	TOBESPORT CORSICA	17:47:47	00:46:35	01:27:01	00:50:19	00:46:35	01:27:01	00:50:19
708	324			Rami EL MAHMOUD	03:03:57	VEM	356	661	STADE FRANCAIS	17:47:49	00:47:19	01:26:09	00:50:29	00:47:19	01:26:09	00:50:29
709	556			Arnaud LEJEUNE	03:04:06	VEM	357	662	YPRL SAINT CYR TRI	17:47:57	00:37:04	01:23:21	01:03:40	00:37:04	01:23:21	01:03:40
710	865			Sylvain DESCAZEAUD	03:04:14	SEM	301	663	TOULON VAR TRIATHLON	17:48:05	00:46:50	01:25:22	00:52:00	00:46:50	01:25:22	00:52:00
711	225			Olivier GILDER	03:04:16	VEM	358	664	TOBESPORT	17:48:08	00:42:00	01:27:26	00:54:50	00:42:00	01:27:26	00:54:50
712	994			Celine SALIGNAT	03:04:19	VEF	20	48	CLUB YERROIS DE TRI 91	17:48:11	00:40:34	01:27:56	00:55:48	00:40:34	01:27:56	00:55:48
713	438			Eric PERRINAUD	03:04:30	SEM	302	665	THOUARS TRI	17:48:21	00:43:59	01:28:38	00:51:52	00:43:59	01:28:38	00:51:52
714	494			Gerard HERVAULT	03:04:47	VEM	359	666	BEST TRI SAINT NAZAIRE	17:48:38	00:42:54	01:22:24	00:59:27	00:42:54	01:22:24	00:59:27
715	511			Frederic MACE	03:04:50	VEM	360	667	ATHLETIC RETZ SUD LAC	17:48:42	00:43:19	01:21:45	00:59:45	00:43:19	01:21:45	00:59:45
716	673			Raphael HUMEAU	03:04:56	SEM	303	668	SAINT-LYPHARD	17:48:48	00:48:23	01:23:09	00:53:24	00:48:23	01:23:09	00:53:24
717	40			Pascal JAMET	03:04:57	VEM	361	669	TRI ATLANTIQUE CARQUEFOU	17:48:48	00:48:18	01:25:35	00:51:03	00:48:18	01:25:35	00:51:03
718	714			Nicolas MONTETAGAUD	03:04:58	SEM	304	670	PARIS	17:48:49	00:41:17	01:29:47	00:53:52	00:41:17	01:29:47	00:53:52
719	437			Jerome LASSALLE	03:05:03	VEM	362	671	THOUARS TRI	17:48:55	00:43:38	01:24:05	00:57:19	00:43:38	01:24:05	00:57:19
720	613			Patrick PONCIN	03:05:05	VEM	363	672	NOGENT SOLIDARITE TRI	17:48:57	00:44:37	01:29:49	00:50:38	00:44:37	01:29:49	00:50:38
721	516			Yannick CLENET	03:05:10	VEM	364	673	ATHLETIC RETZ SUD LAC	17:49:02	00:51:43	01:23:48	00:49:37	00:51:43	01:23:48	00:49:37
722	169			Anne Sophie MOREAU	03:05:16	VEF	21	49	TRI VELOCE SAINT SEBASTIEN	17:49:07	00:48:35	01:30:02	00:46:37	00:48:35	01:30:02	00:46:37
723	111			Pacome SAILLARD	03:05:28	JUM	6	674	TRI CLUB NANTAIS	17:49:20	00:46:27	01:22:23	00:56:38	00:46:27	01:22:23	00:56:38
724	836			Sylvain TALVERT	03:05:34	VEM	365	675	LA BAULE-ESCOUBLAC	17:49:26	00:38:10	01:23:51	01:03:32	00:38:10	01:23:51	01:03:32
725	21			Christine GAUTIER	03:05:56	VEF	22	50	SAINT HERBLAIN TRI	17:49:48	00:45:41	01:23:21	00:56:53	00:45:41	01:23:21	00:56:53
726	744			Luc VEYSSIERE	03:06:03	SEM	305	676	VINCENNES	17:49:54	00:43:11	01:29:05	00:53:46	00:43:11	01:29:05	00:53:46
727	174			Jean Christophe TOUX	03:06:04	VEM	366	677	TRI VELOCE SAINT SEBASTIEN	17:49:56	00:43:53	01:22:00	01:00:10	00:43:53	01:22:00	01:00:10
728	223			Luc FRANCOIS	03:06:13	VEM	367	678	TOBESPORT	17:50:05	00:42:20	01:24:28	00:59:24	00:42:20	01:24:28	00:59:24
729	765			Julien CARPENTIER	03:06:25	SEM	306	679	NANTES	17:50:17	00:44:10	01:30:30	00:51:44	00:44:10	01:30:30	00:51:44
730	787			Damien JUSSIAUME	03:06:25	VEM	368	680	SAINT-JULIEN-DE-CONCELLES	17:50:17	00:49:28	01:21:02	00:55:55	00:49:28	01:21:02	00:55:55
731	33			Thierry ALLAIN LE DROGO	03:06:44	VEM	369	681	TRI ATLANTIQUE CARQUEFOU	17:50:35	00:53:54	01:21:59	00:50:50	00:53:54	01:21:59	00:50:50
732	802			Mathieu THOMAS	03:06:46	SEM	307	682	NANTES	17:50:38	00:43:33	01:28:18	00:54:55	00:43:33	01:28:18	00:54:55
733	896			Sebastien BAUDOUIN	03:06:47	VEM	370	683	MANITOU |	17:50:38	00:50:42	01:23:30	00:52:35	00:50:42	01:23:30	00:52:35
734	709			Hubert WELTER	03:06:47	VEM	371	684	ASPTT 36 SPORT NATURE	17:50:39	00:44:07	01:29:00	00:53:39	00:44:07	01:29:00	00:53:39
735	811			Carl GONNET	03:07:06	SEM	308	685	VOURLES	17:50:58	00:48:23	01:28:47	00:49:55	00:48:23	01:28:47	00:49:55
736	596			Christophe GUINES	03:07:06	VEM	372	686	SAINT GREGOIRE TRI	17:50:58	00:52:21	01:24:58	00:49:47	00:52:21	01:24:58	00:49:47
737	555			Karl ROUABLE	03:07:12	VEM	373	687	YPRL SAINT CYR TRI	17:51:04	00:40:47	01:27:14	00:59:10	00:40:47	01:27:14	00:59:10
738	367			Jerome JOUAN	03:07:19	VEM	374	688	ATHLETIC CLUB BOULOGNE BILLANCOURT	17:51:11	00:46:23	01:31:38	00:49:18	00:46:23	01:31:38	00:49:18
739	195			Guy PERRON	03:07:27	VEM	375	689	ASPTT ANGERS	17:51:18	00:47:27	01:28:48	00:51:11	00:47:27	01:28:48	00:51:11
740	553			Pierre ESNEE	03:07:42	VEM	376	690	CAEN TRI	17:51:34	00:43:20	01:28:42	00:55:39	00:43:20	01:28:42	00:55:39
741	604			Antoine CHENEVIER	03:07:58	SEM	309	691	RACING MULTI ATHLON	17:51:50	00:49:53	01:25:29	00:52:35	00:49:53	01:25:29	00:52:35
742	207			Paul ARANDA	03:08:01	VEM	377	692	TOBESPORT	17:51:53	00:48:28	01:22:48	00:56:44	00:48:28	01:22:48	00:56:44
743	108			Joris ROBILLARD	03:08:12	SEM	310	693	TRI CLUB NANTAIS	17:52:03	00:44:29	01:29:54	00:53:47	00:44:29	01:29:54	00:53:47
744	868			Matthieu SALMON	03:08:25	SEM	311	694	FOURQUEUX	17:52:17	00:42:49	01:27:21	00:58:15	00:42:49	01:27:21	00:58:15
745	650			Denis BLAISE	03:08:28	VEM	378	695	AS ENERGY 91 TRI	17:52:20	00:48:05	01:26:47	00:53:35	00:48:05	01:26:47	00:53:35
746	541			Virginie MAYENDI	03:08:38	VEF	23	51	LA ROCHELLE TRI	17:52:29	00:43:15	01:21:41	01:03:40	00:43:15	01:21:41	01:03:40
747	734			Ludovic GOURET	03:08:39	SEM	312	696	SAUTRON	17:52:31	00:49:41	01:30:14	00:48:44	00:49:41	01:30:14	00:48:44
748	482			Delphine TIRGARI	03:08:49	VEF	24	52	BEST TRI SAINT NAZAIRE	17:52:41	00:46:04	01:28:42	00:54:02	00:46:04	01:28:42	00:54:02
749	588			Gregory BOULOT	03:09:04	SEM	313	697	TOBESPORT CORSICA	17:52:56	00:38:35	01:22:34	01:07:55	00:38:35	01:22:34	01:07:55
750	733			Nicolas DEVERRE	03:09:16	VEM	379	698	CLAMART	17:53:08	00:41:40	01:27:23	01:00:12	00:41:40	01:27:23	01:00:12
751	652			Jerome WACQUANT	03:09:21	VEM	380	699	TRINOSAURES	17:53:13	00:47:42	01:19:33	01:02:05	00:47:42	01:19:33	01:02:05
752	701			Jerome PRIEUR	03:09:35	SEM	314	700	LE MANS	17:53:27	00:40:51	01:26:34	01:02:09	00:40:51	01:26:34	01:02:09
753	923			Christelle PICARD	03:09:53	VEF	25	53	POISSY TRI	17:53:45	00:46:47	01:27:54	00:55:11	00:46:47	01:27:54	00:55:11
754	790			Guillaume BUGNON	03:10:01	SEM	315	701	PARIS	17:53:53	00:48:45	01:32:09	00:49:06	00:48:45	01:32:09	00:49:06
755	549			Frederic BERNACHE	03:10:11	VEM	381	702	CAEN TRIATHLON	17:54:03	00:46:08	01:33:45	00:50:17	00:46:08	01:33:45	00:50:17
756	16			Anne Mette SOLER MY	03:10:23	VEF	26	54	TOS TRI	17:54:15	00:47:02	01:30:51	00:52:29	00:47:02	01:30:51	00:52:29
757	15			Pierre Vincent SOLER MY	03:10:24	VEM	382	703	TOS TRI	17:54:16	00:44:44	01:29:27	00:56:12	00:44:44	01:29:27	00:56:12
758	231			Joseph MAIRE	03:10:31	VEM	383	704	TOBESPORT	17:54:22	00:53:08	01:29:30	00:47:52	00:53:08	01:29:30	00:47:52
759	721			Yannick PINEAU	03:11:00	VEM	384	705	SAINT-JULIEN-DE-CONCELLES	17:54:51	00:45:58	01:29:32	00:55:29	00:45:58	01:29:32	00:55:29
760	795			Michel JOLIVET	03:11:02	VEM	385	706		17:54:54	00:45:29	01:24:17	01:01:15	00:45:29	01:24:17	01:01:15
761	876			Julie HENRIQUES	03:11:28	SEF	27	55	ASNIERES-SUR-SEINE	17:55:20	00:50:47	01:30:21	00:50:20	00:50:47	01:30:21	00:50:20
762	98			Enrique REAL PEREZ	03:11:29	VEM	386	707	TRI CLUB NANTAIS	17:55:20	00:44:52	01:26:21	01:00:15	00:44:52	01:26:21	01:00:15
763	724			Sebastien CHATELIER	03:11:36	SEM	316	708	LE POULIGUEN	17:55:28	00:43:41	01:31:01	00:56:54	00:43:41	01:31:01	00:56:54
764	827			Pierre FRARIN	03:11:49	SEM	317	709	COURBEVOIE	17:55:41	00:43:49	01:29:35	00:58:24	00:43:49	01:29:35	00:58:24
765	203			Gilles DENIAU	03:12:06	VEM	387	710	SAUMUR TEAM TRI	17:55:58	00:41:02	01:28:31	01:02:32	00:41:02	01:28:31	01:02:32
766	525			Vincent HUE	03:12:16	VEM	388	711	RENNES TRI	17:56:08	00:42:58	01:29:19	00:59:58	00:42:58	01:29:19	00:59:58
767	62			Jean-Christophe CHESNEAU	03:12:27	VEM	389	712	TRI CLUB NANTAIS	17:56:18	00:42:20	01:25:51	01:04:15	00:42:20	01:25:51	01:04:15
768	944			Christophe GIRAUD	03:12:53	VEM	390	713	VERSAILLES TRI	17:56:45	00:47:25	01:26:37	00:58:50	00:47:25	01:26:37	00:58:50
769	479			Cedric CHATELIER	03:13:03	SEM	318	714	BLAIN TRI	17:56:55	00:44:04	01:27:38	01:01:19	00:44:04	01:27:38	01:01:19
770	754			Florian ROUCH	03:13:06	SEM	319	715	ADIDAS RUNNERS - BIR-HAKEIM	17:56:58	00:53:16	01:27:20	00:52:30	00:53:16	01:27:20	00:52:30
771	377			David GOMES	03:13:17	VEM	391	716	COURBEVOIE TRI	17:57:09	00:43:14	01:24:28	01:05:34	00:43:14	01:24:28	01:05:34
772	58			Philippe BRUNEAU	03:13:30	SEM	320	717	TRI CLUB NANTAIS	17:57:22	00:40:18	01:29:00	01:04:11	00:40:18	01:29:00	01:04:11
773	718			Pawel SKOWRONSKI	03:13:44	VEM	392	718		17:57:36	00:50:48	01:26:20	00:56:35	00:50:48	01:26:20	00:56:35
774	974			Didier BENNETOT	03:13:48	VEM	393	719	STADE POITEVIN TRI	17:57:40	00:48:54	01:22:58	01:01:55	00:48:54	01:22:58	01:01:55
775	182			Frederic TEXEREAU	03:13:49	VEM	394	720	ANGERS TRI	17:57:41	00:40:10	01:24:26	01:09:13	00:40:10	01:24:26	01:09:13
776	926			Laure POUVREAU	03:14:05	SEF	28	56	POISSY TRI	17:57:57	00:42:33	01:30:20	01:01:11	00:42:33	01:30:20	01:01:11
777	305			Patrick QUANTIN	03:14:31	VEM	395	721	SABLE TRI	17:58:22	00:42:25	01:19:56	01:12:09	00:42:25	01:19:56	01:12:09
778	692			Marc NARBOT	03:14:33	SEM	321	722	PARIS	17:58:25	00:47:17	01:31:57	00:55:18	00:47:17	01:31:57	00:55:18
779	939			Cecile NUSSLI	03:14:39	VEF	27	57	VELIZY TRI	17:58:31	00:50:02	01:27:10	00:57:26	00:50:02	01:27:10	00:57:26
780	849			Igor CHAINE	03:14:41	SEM	322	723	PARIS	17:58:33	00:46:47	01:28:05	00:59:49	00:46:47	01:28:05	00:59:49
781	672			Stephane COUDRAY	03:14:45	VEM	396	724	SUCE-SUR-ERDRE	17:58:37	00:51:56	01:24:29	00:58:20	00:51:56	01:24:29	00:58:20
782	580			Raphael BEMBARON	03:14:52	VEM	397	725	WILD TEAM TRI	17:58:44	00:42:46	01:29:33	01:02:33	00:42:46	01:29:33	01:02:33
783	662			Damien PELLIER	03:14:55	VEM	398	726	LA BRIE FRANCILIENNE TRIATHLON	17:58:47	00:40:55	01:26:42	01:07:18	00:40:55	01:26:42	01:07:18
784	716			Sylvain REDUREAU	03:14:56	VEM	399	727	NANTES	17:58:47	00:46:19	01:31:48	00:56:48	00:46:19	01:31:48	00:56:48
785	90			Philippe LENOBLE	03:14:59	VEM	400	728	TRI CLUB NANTAIS	17:58:51	00:49:35	01:31:42	00:53:42	00:49:35	01:31:42	00:53:42
786	373			Laurence BELLICAUD	03:15:33	VEF	28	58	COURBEVOIE TRI	17:59:25	00:47:27	01:31:02	00:57:04	00:47:27	01:31:02	00:57:04
787	515			Jean Michel COSSET	03:15:39	VEM	401	729	ATHLETIC RETZ SUD LAC	17:59:31	00:53:02	01:25:34	00:57:03	00:53:02	01:25:34	00:57:03
788	233			Coumar PARASSOURAMANE	03:16:07	SEM	323	730	TOBESPORT	17:59:59	00:53:08	01:34:24	00:48:33	00:53:08	01:34:24	00:48:33
789	351			Eric LAGIER	03:16:07	VEM	402	731	TRI CLUB DE VILLEPARISIS	17:59:59	00:43:25	01:33:43	00:58:58	00:43:25	01:33:43	00:58:58
790	809			Alexandre KOTZAMANIDIS	03:16:17	VEM	403	732	CHATENAY-MALABRY	18:00:09	00:43:56	01:28:38	01:03:42	00:43:56	01:28:38	01:03:42
791	333			Patrice GAULT	03:16:29	VEM	404	733	LES PIRANHAS	18:00:21	00:51:39	01:27:55	00:56:54	00:51:39	01:27:55	00:56:54
792	985			Celine HEMON	03:16:45	SEF	29	59	CLUB YERROIS DE TRI 91	18:00:37	00:45:14	01:34:41	00:56:49	00:45:14	01:34:41	00:56:49
793	986			Celine BOELENS	03:16:46	SEF	30	60	CYT91	18:00:37	99:99:99	02:19:56	00:56:49	99:99:99	02:19:56	00:56:49
794	674			Gerald TOMADESSO	03:17:01	VEM	405	734	PALAISEAU	18:00:53	00:58:37	01:30:26	00:47:58	00:58:37	01:30:26	00:47:58
795	612			Annie Paule PONCIN	03:17:06	VEF	29	61	NOGENT SOLIDARITE TRI	18:00:58	00:43:16	01:36:32	00:57:18	00:43:16	01:36:32	00:57:18
796	34			Yann BAUDOT	03:17:13	VEM	406	735	TRI ATLANTIQUE CARQUEFOU	18:01:05	00:56:44	01:23:00	00:57:28	00:56:44	01:23:00	00:57:28
797	670			Remi SANTIAGO	03:17:50	SEM	324	736	ORVAULT	18:01:42	00:46:28	01:33:23	00:57:58	00:46:28	01:33:23	00:57:58
798	911			Pascal BOUTREAU	03:17:53	VEM	407	737	MEUDON TRI	18:01:45	00:44:03	01:32:14	01:01:35	00:44:03	01:32:14	01:01:35
799	130			Sandrine GUEVEL	03:18:15	SEF	31	62	TRI COTE D AMOUR	18:02:07	00:49:11	01:35:29	00:53:35	00:49:11	01:35:29	00:53:35
800	521			Frederic BASTIDES	03:18:18	VEM	408	738	SAINT AVERTIN SPORTS TRI 37	18:02:10	00:43:01	01:26:36	01:08:41	00:43:01	01:26:36	01:08:41
801	815			Clement CHASLES	03:18:34	SEM	325	739	FONDATION VALENTIN RIBET	18:02:26	00:46:35	01:40:26	00:51:33	00:46:35	01:40:26	00:51:33
802	900			Messaoud ICHALALENE	03:18:50	SEM	326	740	MANITOU |	18:02:42	00:40:07	01:37:40	01:01:02	00:40:07	01:37:40	01:01:02
803	118			Laurence BERNARD	03:18:53	VEF	30	63	TRI COTE D AMOUR	18:02:45	00:47:41	01:29:19	01:01:52	00:47:41	01:29:19	01:01:52
804	977			Olivier GARDARIN	03:19:01	VEM	409	741	STADE POITEVIN TRI	18:02:52	00:54:07	01:29:24	00:55:29	00:54:07	01:29:24	00:55:29
805	208			Christophe BACH	03:19:08	VEM	410	742	TOBESPORT	18:02:59	00:43:19	01:26:44	01:09:03	00:43:19	01:26:44	01:09:03
806	941			Jerome TABOUREL	03:19:24	VEM	411	743	VELIZY TRI	18:03:16	00:47:22	01:30:09	01:01:52	00:47:22	01:30:09	01:01:52
807	814			Guilhem ISSARTEL	03:19:31	SEM	327	744	PARIS	18:03:22	00:48:43	01:36:48	00:53:59	00:48:43	01:36:48	00:53:59
808	846			David HAMIDOVIC	03:19:34	VEM	412	745	PREVERENGES	18:03:26	00:52:05	01:26:35	01:00:53	00:52:05	01:26:35	01:00:53
809	242			Eric JAGUT	03:19:40	VEM	413	746	FREE IRON TEAM	18:03:32	00:46:11	01:26:50	01:06:38	00:46:11	01:26:50	01:06:38
810	1010			Joel MADELAINE	03:19:57	SEM	328	747	LA SAINT MANDEENNE TRIATHLON	18:03:49	00:43:14	01:53:39	00:43:02	00:43:14	01:53:39	00:43:02
811	423			Charlotte BERTRON	03:20:05	SEF	32	64	ASTC THALES	18:03:57	00:52:18	01:35:26	00:52:20	00:52:18	01:35:26	00:52:20
812	79			Georges HUBERT	03:20:14	VEM	414	748	TRI CLUB NANTAIS	18:04:05	00:49:02	01:35:13	00:55:57	00:49:02	01:35:13	00:55:57
813	801			Maxime DEMATTEO	03:20:16	SEM	329	749	WASQUEHAL	18:04:08	00:44:47	01:38:29	00:57:00	00:44:47	01:38:29	00:57:00
814	563			Pierre-Yves ROLLAND	03:20:37	VEM	415	750	WILD TEAM TRI	18:04:28	00:41:09	01:29:07	01:10:19	00:41:09	01:29:07	01:10:19
815	289			Pierre BRUNELLIERE	03:20:40	VEM	416	751	MAT 72  LE MANS ASSOCIATION TRIA	18:04:32	00:46:46	01:37:13	00:56:40	00:46:46	01:37:13	00:56:40
816	561			Julien WISZ	03:20:47	SEM	330	752	WILD TEAM TRI	18:04:38	00:53:30	01:32:30	00:54:45	00:53:30	01:32:30	00:54:45
817	540			Pascal MUSSAU	03:20:54	VEM	417	753	LA ROCHELLE TRI	18:04:45	00:46:33	01:32:54	01:01:26	00:46:33	01:32:54	01:01:26
818	819			Julia CHANIOLLEAU	03:21:31	SEF	33	65	PARIS	18:05:22	00:41:53	01:36:45	01:02:51	00:41:53	01:36:45	01:02:51
819	779			Olivier CERCLERON	03:21:54	VEM	418	754	NANTES	18:05:46	00:53:35	01:33:06	00:55:13	00:53:35	01:33:06	00:55:13
820	1041			Christophe GERMAIN	03:22:31	VEM	419	755	AUDENCIA |	18:06:23	00:55:36	01:35:02	00:51:53	00:55:36	01:35:02	00:51:53
821	755			Youenn COSOTTI	03:23:02	SEM	331	756	PARIS	18:06:53	00:44:38	01:33:18	01:05:05	00:44:38	01:33:18	01:05:05
822	570			Huu Tien Fabrice LAI	03:23:35	VEM	420	757	WILD TEAM TRI	18:07:27	00:50:40	01:32:59	00:59:55	00:50:40	01:32:59	00:59:55
823	794			Henri LEGRAIN	03:24:31	SEM	332	758	PARIS	18:08:23	00:46:25	01:28:47	01:09:19	00:46:25	01:28:47	01:09:19
824	717			Emmanuel VALLET	03:24:59	SEM	333	759	RENNES	18:08:51	00:46:06	01:31:03	01:07:49	00:46:06	01:31:03	01:07:49
825	741			Jean-Francois CHOQUART	03:25:19	VEM	421	760	LA BAULE-ESCOUBLAC	18:09:11	00:48:55	01:30:27	01:05:56	00:48:55	01:30:27	01:05:56
826	398			Nadia ROUVIERE	03:25:31	SEF	34	66	ISSY TRI	18:09:22	00:49:30	01:37:25	00:58:35	00:49:30	01:37:25	00:58:35
827	395			Eric IMBERT	03:25:31	VEM	422	761	ISSY TRI	18:09:23	00:49:33	01:37:22	00:58:35	00:49:33	01:37:22	00:58:35
828	889			Florian PERROT	03:25:34	VEM	423	762	PARIS	18:09:25	00:54:15	01:29:57	01:01:21	00:54:15	01:29:57	01:01:21
829	564			Gilles PEUREUX	03:26:27	VEM	424	763	WILD TEAM TRI	18:10:19	00:49:07	01:36:04	01:01:15	00:49:07	01:36:04	01:01:15
830	679			Florian RANNOU	03:26:47	SEM	334	764	VILLENAVE-D ORNON	18:10:39	00:51:51	01:36:32	00:58:24	00:51:51	01:36:32	00:58:24
831	575			Marc FOURNIER	03:28:35	SEM	335	765	WILD TEAM TRI	18:12:27	00:50:17	01:38:35	00:59:43	00:50:17	01:38:35	00:59:43
832	110			Pierre ROUGIER	03:28:40	VEM	425	766	TRI CLUB NANTAIS	18:12:32	00:51:15	01:32:53	01:04:31	00:51:15	01:32:53	01:04:31
833	1003			Constance MARLE	03:28:52	SEF	35	67	TEAM OLORON TRIATHLON	18:12:44	00:49:08	01:40:54	00:58:49	00:49:08	01:40:54	00:58:49
834	117			Philippe BAZAUD	03:29:18	VEM	426	767	TRI COTE D AMOUR	18:13:10	00:47:06	01:32:56	01:09:15	00:47:06	01:32:56	01:09:15
835	655			Yves TRIAS	03:30:16	VEM	427	768	TRINOSAURES	18:14:08	00:51:44	01:34:30	01:04:01	00:51:44	01:34:30	01:04:01
836	656			Christophe BELORGEOT	03:31:09	VEM	428	769	TRINOSAURES	18:15:01	00:46:05	01:35:31	01:09:31	00:46:05	01:35:31	01:09:31
837	435			Karine LE TALLEC	03:31:16	VEF	31	68	TEAM CONCARNEAU TRIATHLON	18:15:07	00:52:36	01:32:29	01:06:10	00:52:36	01:32:29	01:06:10
838	469			Anthony AVENARD	03:31:16	VEM	429	770	CORMARIS TRI	18:15:08	00:51:47	01:36:10	01:03:18	00:51:47	01:36:10	01:03:18
839	700			Rafik OUGHANEM	03:32:04	SEM	336	771	NANTES	18:15:56	00:49:57	01:40:25	01:01:41	00:49:57	01:40:25	01:01:41
840	823			Aurelien ETOUBLEAU	03:32:48	SEM	337	772	SAUVIAT-SUR-VIGE	18:16:40	00:50:21	01:45:40	00:56:46	00:50:21	01:45:40	00:56:46
841	490			Patrick LE GAREC	03:33:21	VEM	430	773	BEST TRI SAINT NAZAIRE	18:17:13	00:50:32	01:36:49	01:06:00	00:50:32	01:36:49	01:06:00
842	910			Anne ODRU	03:35:07	SEF	36	69	TRIATHLON MEDIA CLUB	18:18:58	00:48:35	00:52:10	01:54:20	00:48:35	00:52:10	01:54:20
843	912			Philippe GINESTE	03:35:15	VEM	431	774	STRASBOURG	18:19:07	00:52:15	01:46:44	00:56:15	00:52:15	01:46:44	00:56:15
844	54			Jean Paul BERTRAND DEMANES	03:35:27	VEM	432	775	TRI CLUB NANTAIS	18:19:19	00:49:26	01:31:00	01:15:01	00:49:26	01:31:00	01:15:01
845	826			Hortense BRUNIER	03:37:51	SEF	37	70	PARIS	18:21:43	00:49:49	00:55:03	01:52:58	00:49:49	00:55:03	01:52:58
846	988			Matthieu KELLER	03:38:16	SEM	338	776	CLUB YERROIS DE TRI 91	18:22:08	00:50:59	01:35:38	01:11:38	00:50:59	01:35:38	01:11:38
847	28			Ronan RICHARTE	03:38:18	VEM	433	777	SAINT HERBLAIN TRI	18:22:09	00:52:24	01:39:40	01:06:13	00:52:24	01:39:40	01:06:13
848	853			Virginie THEBAULT	03:38:30	VEF	32	71	TEAM WELLNESS	18:22:22	00:53:00	01:44:30	01:00:59	00:53:00	01:44:30	01:00:59
849	380			Laurence JUSTE	03:39:03	VEF	33	72	COURBEVOIE TRI	18:22:54	00:55:57	01:38:14	01:04:51	00:55:57	01:38:14	01:04:51
850	230			Jacques LAGNEAU	03:42:07	VEM	434	778	TOBESPORT	18:25:58	00:53:15	01:26:38	01:22:13	00:53:15	01:26:38	01:22:13
851	447			Thomas PEUTIN	03:43:24	SEM	339	779	ISSY-LES-MOULINEAUX	18:27:16	00:52:44	01:53:14	00:57:26	00:52:44	01:53:14	00:57:26
852	583			Gregoire AMAR	03:45:55	SEM	340	780	TUVB TRI	18:29:47	00:47:00	01:51:31	01:07:23	00:47:00	01:51:31	01:07:23
853	1001			Anne-Laure CHADEYRAS	03:48:54	SEF	38	73	SAINT-MANDE	18:32:45	00:48:37	01:48:15	01:12:01	00:48:37	01:48:15	01:12:01
854	189			Alexandre BRANDT-KASPER	03:55:53	VEM	435	781	ASPTT ANGERS	18:39:45	00:47:33	01:47:18	01:21:01	00:47:33	01:47:18	01:21:01
999999	4			Eric DEZELUS	DNS | Non-partant	VEM	999999	999999	CONSEIL REGIONAL |	14:43:51	99:99:99	99:99:99	99:99:99	99:99:99	99:99:99	99:99:99
999999	5			Brendan LE RESTE	DNS | Non-partant	VEM	999999	999999	CONSEIL REGIONAL |	14:43:51	99:99:99	99:99:99	99:99:99	99:99:99	99:99:99	99:99:99
999999	7			Thierry BAUDET	DNS | Non-partant	VEM	999999	999999	AIRBUS |	14:43:51	99:99:99	99:99:99	99:99:99	99:99:99	99:99:99	99:99:99
999999	24			Marc JOLIDON	STA | Partant en course	VEM	999999	999999	SAINT HERBLAIN TRI	14:43:51	00:36:15	99:99:99	99:99:99	00:36:15	99:99:99	99:99:99
999999	57			Frederic BROSSARD	DNS | Non-partant	VEM	999999	999999	TRI CLUB NANTAIS	14:43:51	99:99:99	99:99:99	99:99:99	99:99:99	99:99:99	99:99:99
999999	63			Christian CONAN	STA | Partant en course	VEM	999999	999999	TRI CLUB NANTAIS	14:43:51	00:37:53	01:10:28	99:99:99	00:37:53	01:10:28	99:99:99
999999	64			Pascal DANIEL	STA | Partant en course	VEM	999999	999999	TRI CLUB NANTAIS	14:43:51	00:32:58	99:99:99	99:99:99	00:32:58	99:99:99	99:99:99
999999	78			Eric HOUBEAUT	DNS | Non-partant	VEM	999999	999999	TRI CLUB NANTAIS	14:43:51	99:99:99	99:99:99	99:99:99	99:99:99	99:99:99	99:99:99
999999	107			Fabien RIVIER	STA | Partant en course	VEM	999999	999999	TRI CLUB NANTAIS	14:43:51	00:38:38	99:99:99	99:99:99	00:38:38	99:99:99	99:99:99
999999	109			Jean David ROSENBAUM	DNS | Non-partant	VEM	999999	999999	TRI CLUB NANTAIS	14:43:51	99:99:99	99:99:99	99:99:99	99:99:99	99:99:99	99:99:99
999999	121			Jan CHERBONNIER	DNS | Non-partant	JUM	999999	999999	TRI COTE D AMOUR	14:43:51	99:99:99	99:99:99	99:99:99	99:99:99	99:99:99	99:99:99
999999	136			Fabienne LABBEY	DNS | Non-partant	VEF	999999	999999	TRI COTE D AMOUR	14:43:51	99:99:99	99:99:99	99:99:99	99:99:99	99:99:99	99:99:99
999999	146			Xavier PLASSAIS	DNS | Non-partant	VEM	999999	999999	TRI COTE D AMOUR	14:43:51	99:99:99	99:99:99	99:99:99	99:99:99	99:99:99	99:99:99
999999	151			Fabien TASTET	DNS | Non-partant	SEM	999999	999999	TRI COTE D AMOUR	14:43:51	99:99:99	99:99:99	99:99:99	99:99:99	99:99:99	99:99:99
999999	158			Arnaud BLAIS	DNS | Non-partant	VEM	999999	999999	TRI SPORT COUERONNAIS	14:43:51	99:99:99	99:99:99	99:99:99	99:99:99	99:99:99	99:99:99
999999	170			Philippe NERRIERE	STA | Partant en course	VEM	999999	999999	TRI VELOCE SAINT SEBASTIEN	14:43:51	00:41:41	99:99:99	99:99:99	00:41:41	99:99:99	99:99:99
999999	179			Simon HODE	DNS | Non-partant	SEM	999999	999999	ANGERS TRI	14:43:51	99:99:99	99:99:99	99:99:99	99:99:99	99:99:99	99:99:99
999999	186			Stephane MENET	STA | Partant en course	VEM	999999	999999	ANJOU TRI TRELAZE	14:43:51	00:39:12	99:99:99	99:99:99	00:39:12	99:99:99	99:99:99
999999	187			Laurent BABARIT	DNS | Non-partant	VEM	999999	999999	ASPTT ANGERS	14:43:51	99:99:99	99:99:99	99:99:99	99:99:99	99:99:99	99:99:99
999999	190			Jean Louis GIRARD	DNS | Non-partant	VEM	999999	999999	ASPTT ANGERS	14:43:51	99:99:99	99:99:99	99:99:99	99:99:99	99:99:99	99:99:99
999999	194			Pascal MOURIN	STA | Partant en course	VEM	999999	999999	ASPTT ANGERS	14:43:51	00:35:26	99:99:99	99:99:99	00:35:26	99:99:99	99:99:99
999999	197			Nicolas THULEAU	DNS | Non-partant	VEM	999999	999999	ASPTT ANGERS	14:43:51	99:99:99	99:99:99	99:99:99	99:99:99	99:99:99	99:99:99
999999	200			Antoine JOUET	STA | Partant en course	VEM	999999	999999	CHOLET TRI	14:43:51	00:32:09	99:99:99	99:99:99	00:32:09	99:99:99	99:99:99
999999	201			Philippe RAOUX	DNS | Non-partant	VEM	999999	999999	CHOLET TRI	14:43:51	99:99:99	99:99:99	99:99:99	99:99:99	99:99:99	99:99:99
999999	236			Christophe RENAULT	DNS | Non-partant	VEM	999999	999999	TOBESPORT	14:43:51	99:99:99	99:99:99	99:99:99	99:99:99	99:99:99	99:99:99
999999	243			Frederic LE GARJAN	STA | Partant en course	VEM	999999	999999	FREE IRON TEAM	14:43:51	00:49:34	01:29:22	99:99:99	00:49:34	01:29:22	99:99:99
999999	244			Bertrand AUPIED	DNS | Non-partant	VEM	999999	999999	CHATEAU GONTIER TRI	14:43:51	99:99:99	99:99:99	99:99:99	99:99:99	99:99:99	99:99:99
999999	260			Alain GUILLET	STA | Partant en course	VEM	999999	999999	LAVAL TRI CLUB	14:43:51	00:40:25	99:99:99	99:99:99	00:40:25	99:99:99	99:99:99
999999	265			Benoit SUPLY	DNS | Non-partant	VEM	999999	999999	PLOEMEUR TRI	14:43:51	99:99:99	99:99:99	99:99:99	99:99:99	99:99:99	99:99:99
999999	276			Guy HUET	DNS | Non-partant	VEM	999999	999999	URKIROLAK TRI	14:43:51	99:99:99	99:99:99	99:99:99	99:99:99	99:99:99	99:99:99
999999	291			Ludovic COLLET	STA | Partant en course	SEM	999999	999999	MAT 72  LE MANS ASSOCIATION TRIA	14:43:51	00:32:33	01:09:01	99:99:99	00:32:33	01:09:01	99:99:99
999999	304			Nadine PERRUSSEL	DNS | Non-partant	VEF	999999	999999	SABLE TRI	14:43:51	99:99:99	99:99:99	99:99:99	99:99:99	99:99:99	99:99:99
999999	309			Paul Andre BRES	STA | Partant en course	VEM	999999	999999	CLUB DES NAGEURS DE PARIS	14:43:51	00:36:13	01:19:18	99:99:99	00:36:13	01:19:18	99:99:99
999999	311			Baptiste ELJASZEWICZ	STA | Partant en course	SEM	999999	999999	CLUB DES NAGEURS DE PARIS	14:43:51	00:25:21	01:08:21	99:99:99	00:25:21	01:08:21	99:99:99
999999	314			Emmanuelle RICA	DNS | Non-partant	SEF	999999	999999	CLUB DES NAGEURS DE PARIS	14:43:51	99:99:99	99:99:99	99:99:99	99:99:99	99:99:99	99:99:99
999999	317			Rafael CODINA TORMO	STA | Partant en course	SEM	999999	999999	PARIS SPORT CLUB	14:43:51	00:41:53	01:27:52	99:99:99	00:41:53	01:27:52	99:99:99
999999	320			Cecile BOURGAIN	DNS | Non-partant	VEF	999999	999999	STADE FRANCAIS	14:43:51	99:99:99	99:99:99	99:99:99	99:99:99	99:99:99	99:99:99
999999	325			Dominique KOEHLER	DNS | Non-partant	VEM	999999	999999	STADE FRANCAIS	14:43:51	99:99:99	99:99:99	99:99:99	99:99:99	99:99:99	99:99:99
999999	327			Laurent SAINT-MARTIN	DNS | Non-partant	SEM	999999	999999	STADE FRANCAIS	14:43:51	99:99:99	99:99:99	99:99:99	99:99:99	99:99:99	99:99:99
999999	328			Thomas URLACHER	DNS | Non-partant	VEM	999999	999999	STADE FRANCAIS	14:43:51	99:99:99	99:99:99	99:99:99	99:99:99	99:99:99	99:99:99
999999	335			Guillaume FREBOURG	DNS | Non-partant	SEM	999999	999999	MSA TRI	14:43:51	99:99:99	99:99:99	99:99:99	99:99:99	99:99:99	99:99:99
999999	336			Benjamin BACHELET	DNS | Non-partant	SEM	999999	999999	ROUEN TRI	14:43:51	99:99:99	99:99:99	99:99:99	99:99:99	99:99:99	99:99:99
999999	338			Arnaud CHIVOT	DNS | Non-partant	SEM	999999	999999	ROUEN TRI	14:43:51	99:99:99	99:99:99	99:99:99	99:99:99	99:99:99	99:99:99
999999	344			Benjamin POULAIN	DNS | Non-partant	SEM	999999	999999	ROUEN TRI	14:43:51	99:99:99	99:99:99	99:99:99	99:99:99	99:99:99	99:99:99
999999	345			Eric PREVOST	DNS | Non-partant	SEM	999999	999999	ROUEN TRI	14:43:51	99:99:99	99:99:99	99:99:99	99:99:99	99:99:99	99:99:99
999999	355			Christophe EMONET	STA | Partant en course	VEM	999999	999999	SAINTE GENEVIEVE TRI	14:43:51	00:45:23	99:99:99	99:99:99	00:45:23	99:99:99	99:99:99
999999	357			Richard LEFEVRE	DNS | Non-partant	VEM	999999	999999	SAINTE GENEVIEVE TRI	14:43:51	99:99:99	99:99:99	99:99:99	99:99:99	99:99:99	99:99:99
999999	360			Nicolas GERNIGON	STA | Partant en course	SEM	999999	999999	US PALAISEAU TRI	14:43:51	00:45:27	99:99:99	99:99:99	00:45:27	99:99:99	99:99:99
999999	362			Eric BERNIOLLES	DNS | Non-partant	VEM	999999	999999	ATHLETIC CLUB BOULOGNE BILLANCOURT	14:43:51	99:99:99	99:99:99	99:99:99	99:99:99	99:99:99	99:99:99
999999	363			Boris DE SAINT JORE	DNS | Non-partant	SEM	999999	999999	ATHLETIC CLUB BOULOGNE BILLANCOURT	14:43:51	99:99:99	99:99:99	99:99:99	99:99:99	99:99:99	99:99:99
999999	364			Augustin DECRE	DNS | Non-partant	VEM	999999	999999	ATHLETIC CLUB BOULOGNE BILLANCOURT	14:43:51	99:99:99	99:99:99	99:99:99	99:99:99	99:99:99	99:99:99
999999	366			Valerie JEUDY	DNS | Non-partant	SEF	999999	999999	ATHLETIC CLUB BOULOGNE BILLANCOURT	14:43:51	99:99:99	99:99:99	99:99:99	99:99:99	99:99:99	99:99:99
999999	369			Gabriele MANDURINO	DNS | Non-partant	VEM	999999	999999	ATHLETIC CLUB BOULOGNE BILLANCOURT	14:43:51	99:99:99	99:99:99	99:99:99	99:99:99	99:99:99	99:99:99
999999	370			Jean Philippe RODENBURGER	DNS | Non-partant	SEM	999999	999999	ATHLETIC CLUB BOULOGNE BILLANCOURT	14:43:51	99:99:99	99:99:99	99:99:99	99:99:99	99:99:99	99:99:99
999999	371			Jerome SUISSE DELIS	DNS | Non-partant	VEM	999999	999999	ATHLETIC CLUB BOULOGNE BILLANCOURT	14:43:51	99:99:99	99:99:99	99:99:99	99:99:99	99:99:99	99:99:99
999999	372			Nicolas VIROL	DNS | Non-partant	SEM	999999	999999	ATHLETIC CLUB BOULOGNE BILLANCOURT	14:43:51	99:99:99	99:99:99	99:99:99	99:99:99	99:99:99	99:99:99
999999	375			Charles Philippe DECORI	DNS | Non-partant	VEM	999999	999999	COURBEVOIE TRI	14:43:51	99:99:99	99:99:99	99:99:99	99:99:99	99:99:99	99:99:99
999999	379			Christelle HOMMET	STA | Partant en course	VEF	999999	999999	COURBEVOIE TRI	14:43:51	00:54:27	00:53:43	99:99:99	00:54:27	00:53:43	99:99:99
999999	392			Edouard ADELUS	DNS | Non-partant	SEM	999999	999999	ISSY TRI	14:43:51	99:99:99	99:99:99	99:99:99	99:99:99	99:99:99	99:99:99
999999	393			Bernard COTHIAS	DNS | Non-partant	VEM	999999	999999	ISSY TRI	14:43:51	99:99:99	99:99:99	99:99:99	99:99:99	99:99:99	99:99:99
999999	399			Carole BINJACAR	DNS | Non-partant	SEF	999999	999999	LEVALLOIS TRI	14:43:51	99:99:99	99:99:99	99:99:99	99:99:99	99:99:99	99:99:99
999999	400			Blaise CHAVANNE	DNS | Non-partant	SEM	999999	999999	LEVALLOIS TRI	14:43:51	99:99:99	99:99:99	99:99:99	99:99:99	99:99:99	99:99:99
999999	410			Olivia JACQUET	DNS | Non-partant	SEF	999999	999999	EPPG TRI CLUB 93	14:43:51	99:99:99	99:99:99	99:99:99	99:99:99	99:99:99	99:99:99
999999	417			Jean Francois ORHAN	DNS | Non-partant	VEM	999999	999999	VALLEE DE MONTMORENCY TRI	14:43:51	99:99:99	99:99:99	99:99:99	99:99:99	99:99:99	99:99:99
999999	418			Philippe BRETON	DNS | Non-partant	VEM	999999	999999	353 TRIATHLON CLUB	14:43:51	99:99:99	99:99:99	99:99:99	99:99:99	99:99:99	99:99:99
999999	425			Philippe CORREIA	STA | Partant en course	VEM	999999	999999	ASTC THALES	14:43:51	00:43:16	01:48:00	99:99:99	00:43:16	01:48:00	99:99:99
999999	427			Yann GROLIER	DNS | Non-partant	SEM	999999	999999	E  C  SARTROUVILLE	14:43:51	99:99:99	99:99:99	99:99:99	99:99:99	99:99:99	99:99:99
999999	429			Bertrand HAUDEGOND	DNS | Non-partant	VEM	999999	999999	TC JOUE LES TOURS	14:43:51	99:99:99	99:99:99	99:99:99	99:99:99	99:99:99	99:99:99
999999	436			Binjamin CHIRON	STA | Partant en course	SEM	999999	999999	THOUARS TRI	14:43:51	00:31:50	01:08:44	99:99:99	00:31:50	01:08:44	99:99:99
999999	442			Thomas LE NENAON	DNS | Non-partant	VEM	999999	999999	OUEST France |	14:43:51	99:99:99	99:99:99	99:99:99	99:99:99	99:99:99	99:99:99
999999	446			Jimmy GUILLOTEAU	STA | Partant en course	SEM	999999	999999	SAINT-AIGNAN-GRANDLIEU	14:43:51	00:46:11	99:99:99	99:99:99	00:46:11	99:99:99	99:99:99
999999	449			Gregoire WANTIEZ	DNS | Non-partant	SEM	999999	999999	AMICALE DES BOULISTES OPPYNOIS	14:43:51	99:99:99	99:99:99	99:99:99	99:99:99	99:99:99	99:99:99
999999	450			Christophe GERMAIN	DNS | Non-partant	VEM	999999	999999	AUDENCIA |	14:43:51	99:99:99	99:99:99	99:99:99	99:99:99	99:99:99	99:99:99
999999	459			Stephane POULAIN	DNS | Non-partant	VEM	999999	999999	NANTES TRI	14:43:51	99:99:99	99:99:99	99:99:99	99:99:99	99:99:99	99:99:99
999999	464			Renaud JOUET	DNS | Non-partant	VEM	999999	999999	CORMARIS TRI	14:43:51	99:99:99	99:99:99	99:99:99	99:99:99	99:99:99	99:99:99
999999	466			Fabien CASELLINO	STA | Partant en course	SEM	999999	999999	CORMARIS TRI	14:43:51	00:48:46	01:31:24	99:99:99	00:48:46	01:31:24	99:99:99
999999	467			Matthieu CASELLINO	STA | Partant en course	SEM	999999	999999	CORMARIS TRI	14:43:51	00:42:24	01:35:41	99:99:99	00:42:24	01:35:41	99:99:99
999999	468			Franck BUDAIL	STA | Partant en course	VEM	999999	999999	CORMARIS TRI	14:43:51	00:51:17	01:34:05	99:99:99	00:51:17	01:34:05	99:99:99
999999	472			Valentin CLAUDEL	DNS | Non-partant	SEM	999999	999999	BOUGUENAIS CLUB TRI	14:43:51	99:99:99	99:99:99	99:99:99	99:99:99	99:99:99	99:99:99
999999	475			Stephane OHLMANN	STA | Partant en course	VEM	999999	999999	BLAIN TRI	14:43:51	00:38:03	99:99:99	99:99:99	00:38:03	99:99:99	99:99:99
999999	477			Emmanuel GAUTHIER	STA | Partant en course	SEM	999999	999999	BLAIN TRI	14:43:51	00:37:25	99:99:99	99:99:99	00:37:25	99:99:99	99:99:99
999999	481			Christophe VIDOU	DNS | Non-partant	VEM	999999	999999	BEST TRI SAINT NAZAIRE	14:43:51	99:99:99	99:99:99	99:99:99	99:99:99	99:99:99	99:99:99
999999	501			Michael FREHEL	STA | Partant en course	VEM	999999	999999	BEST TRI SAINT NAZAIRE	14:43:51	00:33:37	99:99:99	99:99:99	00:33:37	99:99:99	99:99:99
999999	507			Faride BENNACEUR	DNS | Non-partant	VEM	999999	999999	BEST TRI SAINT NAZAIRE	14:43:51	99:99:99	99:99:99	99:99:99	99:99:99	99:99:99	99:99:99
999999	509			Cyrille VISONNEAU	DNS | Non-partant	VEM	999999	999999	ATHLETIC RETZ SUD LAC	14:43:51	99:99:99	99:99:99	99:99:99	99:99:99	99:99:99	99:99:99
999999	523			Gilles SIMONNEAUX	DNS | Non-partant	VEM	999999	999999	RENNES TRI	14:43:51	99:99:99	99:99:99	99:99:99	99:99:99	99:99:99	99:99:99
999999	528			Philippe BARIL	DNS | Non-partant	VEM	999999	999999	RENNES TRI	14:43:51	99:99:99	99:99:99	99:99:99	99:99:99	99:99:99	99:99:99
999999	536			Pierre LEBOUCHER	DNS | Non-partant	SEM	999999	999999	ROCHEFORT TRI	14:43:51	99:99:99	99:99:99	99:99:99	99:99:99	99:99:99	99:99:99
999999	543			Sylvie MAHE	DNS | Non-partant	VEF	999999	999999	LA ROCHELLE TRI	14:43:51	99:99:99	99:99:99	99:99:99	99:99:99	99:99:99	99:99:99
999999	552			Jean-Emmanuel GEROUARD	DNS | Non-partant	VEM	999999	999999	CAEN TRI	14:43:51	99:99:99	99:99:99	99:99:99	99:99:99	99:99:99	99:99:99
999999	559			Jean Pierre DORNEAU	DNS | Non-partant	VEM	999999	999999	YPRL SAINT CYR TRI	14:43:51	99:99:99	99:99:99	99:99:99	99:99:99	99:99:99	99:99:99
999999	565			Vincent PEENAERT	STA | Partant en course	VEM	999999	999999	WILD TEAM TRI	14:43:51	00:44:19	01:17:25	99:99:99	00:44:19	01:17:25	99:99:99
999999	571			Olivier HAKIM	DNS | Non-partant	VEM	999999	999999	WILD TEAM TRI	14:43:51	99:99:99	99:99:99	99:99:99	99:99:99	99:99:99	99:99:99
999999	573			Tony GONCALVES	STA | Partant en course	SEM	999999	999999	WILD TEAM TRI	14:43:51	00:51:06	01:33:27	99:99:99	00:51:06	01:33:27	99:99:99
999999	584			Gaetan MOREAU	DNS | Non-partant	VEM	999999	999999	TRI FLERS LA FERTE MACE	14:43:51	99:99:99	99:99:99	99:99:99	99:99:99	99:99:99	99:99:99
999999	595			Jean-Philippe MARTIN	DNS | Non-partant	SEM	999999	999999	SAINT GREGOIRE TRI	14:43:51	99:99:99	99:99:99	99:99:99	99:99:99	99:99:99	99:99:99
999999	598			Bertrand SIFFROY	DNS | Non-partant	VEM	999999	999999	SAINT GREGOIRE TRIATHLON	14:43:51	99:99:99	99:99:99	99:99:99	99:99:99	99:99:99	99:99:99
999999	599			Jean Paul DELBERT	DNS | Non-partant	VEM	999999	999999	ROYAL TRI LILLE	14:43:51	99:99:99	99:99:99	99:99:99	99:99:99	99:99:99	99:99:99
999999	601			Jacoby MYARA	DNS | Non-partant	VEM	999999	999999	RACING MULTI ATHLON	14:43:51	99:99:99	99:99:99	99:99:99	99:99:99	99:99:99	99:99:99
999999	603			Julien DURAND	DNS | Non-partant	SEM	999999	999999	RACING MULTI ATHLON	14:43:51	99:99:99	99:99:99	99:99:99	99:99:99	99:99:99	99:99:99
999999	607			Christian VARLET	DNS | Non-partant	VEM	999999	999999	OLYMPIQUE CLUB CESSONNAIS DE NATATION	14:43:51	99:99:99	99:99:99	99:99:99	99:99:99	99:99:99	99:99:99
999999	609			Eric KERANTERFF	STA | Partant en course	VEM	999999	999999	OLYMPIQUE CLUB CESSONNAIS DE NATATION	14:43:51	00:28:25	01:08:00	99:99:99	00:28:25	01:08:00	99:99:99
999999	623			Thomas NICOLLE	DNS | Non-partant	SEM	999999	999999	LES TRITONS CONDEENS	14:43:51	99:99:99	99:99:99	99:99:99	99:99:99	99:99:99	99:99:99
999999	629			Olivier GORLICH	DNS | Non-partant	VEM	999999	999999	GARNISON RENNES TRI	14:43:51	99:99:99	99:99:99	99:99:99	99:99:99	99:99:99	99:99:99
999999	632			Laurence KOEHLER CAZABAN	DNS | Non-partant	VEF	999999	999999	CA VILLENAVE D ORNON TRI	14:43:51	99:99:99	99:99:99	99:99:99	99:99:99	99:99:99	99:99:99
999999	642			Benjamin GREGOIRE	DNS | Non-partant	SEM	999999	999999	ASFAS TRI	14:43:51	99:99:99	99:99:99	99:99:99	99:99:99	99:99:99	99:99:99
999999	653			Jeffrey WACQUANT	STA | Partant en course	SEM	999999	999999	TRINOSAURES	14:43:51	00:32:52	01:25:01	99:99:99	00:32:52	01:25:01	99:99:99
999999	654			Chantal WACQUANT	STA | Partant en course	VEF	999999	999999	TRINOSAURES	14:43:51	00:54:14	01:46:33	99:99:99	00:54:14	01:46:33	99:99:99
999999	680			Thierry WIES	STA | Partant en course	SEM	999999	999999	YOUNITED CREDIT	14:43:51	00:45:04	99:99:99	99:99:99	00:45:04	99:99:99	99:99:99
999999	684			Alexandre DEGRAVE	DNS | Non-partant	SEM	999999	999999	LES VARIETES - ANGERS	14:43:51	99:99:99	99:99:99	99:99:99	99:99:99	99:99:99	99:99:99
999999	688			Simon DECLERCK	STA | Partant en course	SEM	999999	999999	PARIS	14:43:51	00:42:15	99:99:99	99:99:99	00:42:15	99:99:99	99:99:99
999999	691			Catherine CARLINO	STA | Partant en course	VEF	999999	999999	C2N	14:43:51	00:54:26	99:99:99	99:99:99	00:54:26	99:99:99	99:99:99
999999	693			Guillaume WIES	DNS | Non-partant	SEM	999999	999999	NANTES	14:43:51	99:99:99	99:99:99	99:99:99	99:99:99	99:99:99	99:99:99
999999	698			Sebastien LE BERRE	DNS | Non-partant	SEM	999999	999999	PARIS	14:43:51	99:99:99	99:99:99	99:99:99	99:99:99	99:99:99	99:99:99
999999	704			Cyril LATHULIERE	DNS | Non-partant	SEM	999999	999999	TRIOMPHE TRIATHLON	14:43:51	99:99:99	99:99:99	99:99:99	99:99:99	99:99:99	99:99:99
999999	713			Alexandre ROUZIOU	DNS | Non-partant	SEM	999999	999999	PONTCHATEAU	14:43:51	99:99:99	99:99:99	99:99:99	99:99:99	99:99:99	99:99:99
999999	722			William POIRSON	DNS | Non-partant	VEM	999999	999999	LA FRETTE-SUR-SEINE	14:43:51	99:99:99	99:99:99	99:99:99	99:99:99	99:99:99	99:99:99
999999	723			Benoit CHATELIER	DNS | Non-partant	SEM	999999	999999	LE POULIGUEN	14:43:51	99:99:99	99:99:99	99:99:99	99:99:99	99:99:99	99:99:99
999999	725			Pierre CHATELIER	STA | Partant en course	SEM	999999	999999	LE POULIGUEN	14:43:51	00:41:24	99:99:99	99:99:99	00:41:24	99:99:99	99:99:99
999999	726			Laurent DESPRETZ	DNS | Non-partant	VEM	999999	999999	NANTES	14:43:51	99:99:99	99:99:99	99:99:99	99:99:99	99:99:99	99:99:99
999999	727			Jean Francois RIMBERT	DNS | Non-partant	VEM	999999	999999	LE HAVRE	14:43:51	99:99:99	99:99:99	99:99:99	99:99:99	99:99:99	99:99:99
999999	730			Sebastien TRIVIAUX	STA | Partant en course	VEM	999999	999999	MONTIGNY-LES-CORMEILLES	14:43:51	00:42:04	01:17:42	99:99:99	00:42:04	01:17:42	99:99:99
999999	736			Jean-Benoit GAMBET	DNS | Non-partant	SEM	999999	999999	PARIS	14:43:51	99:99:99	99:99:99	99:99:99	99:99:99	99:99:99	99:99:99
999999	745			Thomas CHESNEAU	DNS | Non-partant	VEM	999999	999999	NANTES	14:43:51	99:99:99	99:99:99	99:99:99	99:99:99	99:99:99	99:99:99
999999	746			Guillaume ASSELIN	DNS | Non-partant	VEM	999999	999999	ADN	14:43:51	99:99:99	99:99:99	99:99:99	99:99:99	99:99:99	99:99:99
999999	747			Eric DESJARDINS	DNS | Non-partant	VEM	999999	999999	LA BAULE-ESCOUBLAC	14:43:51	99:99:99	99:99:99	99:99:99	99:99:99	99:99:99	99:99:99
999999	756			Thierry VEYSSIERE	STA | Partant en course	SEM	999999	999999	PARIS	14:43:51	00:48:57	99:99:99	99:99:99	00:48:57	99:99:99	99:99:99
999999	764			Benoit JARRY	DNS | Non-partant	SEM	999999	999999	GRISY-SUISNES	14:43:51	99:99:99	99:99:99	99:99:99	99:99:99	99:99:99	99:99:99
999999	768			Patrick KRONOUSEK	DNS | Non-partant	VEM	999999	999999		14:43:51	99:99:99	99:99:99	99:99:99	99:99:99	99:99:99	99:99:99
999999	772			Raphael BEAUDOUIN	DNS | Non-partant	SEM	999999	999999	REDON	14:43:51	99:99:99	99:99:99	99:99:99	99:99:99	99:99:99	99:99:99
999999	776			Benjamin PALLIER	DNS | Non-partant	SEM	999999	999999	ARGELOS	14:43:51	99:99:99	99:99:99	99:99:99	99:99:99	99:99:99	99:99:99
999999	783			Francois PIRAULT	DNS | Non-partant	VEM	999999	999999	ANNECY	14:43:51	99:99:99	99:99:99	99:99:99	99:99:99	99:99:99	99:99:99
999999	784			Thomas JOUBERT	DNS | Non-partant	SEM	999999	999999	BOULOGNE-BILLANCOURT	14:43:51	99:99:99	99:99:99	99:99:99	99:99:99	99:99:99	99:99:99
999999	793			Jerome LEGRAIN	DNS | Non-partant	VEM	999999	999999	PARIS	14:43:51	99:99:99	99:99:99	99:99:99	99:99:99	99:99:99	99:99:99
999999	796			Frederic GRIMAUD	DNS | Non-partant	VEM	999999	999999	ROUSSAY	14:43:51	99:99:99	99:99:99	99:99:99	99:99:99	99:99:99	99:99:99
999999	797			Martin HAYE	DNS | Non-partant	VEM	999999	999999	PARIS	14:43:51	99:99:99	99:99:99	99:99:99	99:99:99	99:99:99	99:99:99
999999	798			Gilles MIOCHE	STA | Partant en course	VEM	999999	999999	LES BREVIAIRES	14:43:51	00:44:13	99:99:99	99:99:99	00:44:13	99:99:99	99:99:99
999999	808			Christian ROCHETTE	DNS | Non-partant	VEM	999999	999999	VAUCRESSON	14:43:51	99:99:99	99:99:99	99:99:99	99:99:99	99:99:99	99:99:99
999999	817			Alban ECHARDOUR	DNS | Non-partant	SEM	999999	999999	RUEIL-MALMAISON	14:43:51	99:99:99	99:99:99	99:99:99	99:99:99	99:99:99	99:99:99
999999	832			Charlotte LETAMENDIA	DNS | Non-partant	SEF	999999	999999	PARIS	14:43:51	99:99:99	99:99:99	99:99:99	99:99:99	99:99:99	99:99:99
999999	839			Richard TKACZ	DNS | Non-partant	VEM	999999	999999	BEAUMONT TRIATHLON	14:43:51	99:99:99	99:99:99	99:99:99	99:99:99	99:99:99	99:99:99
999999	840			Jerome FOURQUIER	DNS | Non-partant	VEM	999999	999999	MONTPELLIER TRIATHLON	14:43:51	99:99:99	99:99:99	99:99:99	99:99:99	99:99:99	99:99:99
999999	845			Clarisse PEUCH	DNS | Non-partant	VEF	999999	999999	LEVALLOIS-PERRET	14:43:51	99:99:99	99:99:99	99:99:99	99:99:99	99:99:99	99:99:99
999999	851			Florian BERANGER	DNS | Non-partant	SEM	999999	999999	OUEST RUN TRIATHLON	14:43:51	99:99:99	99:99:99	99:99:99	99:99:99	99:99:99	99:99:99
999999	860			Axel REBAUDIERES	DNS | Non-partant	VEM	999999	999999	COURBEVOIE	14:43:51	99:99:99	99:99:99	99:99:99	99:99:99	99:99:99	99:99:99
999999	861			Cedric MALESIEUX	STA | Partant en course	SEM	999999	999999	RUEIL-MALMAISON	14:43:51	00:56:55	01:49:16	99:99:99	00:56:55	01:49:16	99:99:99
999999	863			Eric MOULLARD	STA | Partant en course	VEM	999999	999999	GGTRI	14:43:51	00:34:20	01:17:42	99:99:99	00:34:20	01:17:42	99:99:99
999999	866			Ellynn LUQUET	DNS | Non-partant	SEF	999999	999999	TRIATHLON LANEUVEVILLE DEVANT NANCY	14:43:51	99:99:99	99:99:99	99:99:99	99:99:99	99:99:99	99:99:99
999999	869			Bruno MEME	DNS | Non-partant	VEM	999999	999999	RS SAINT CYR	14:43:51	99:99:99	99:99:99	99:99:99	99:99:99	99:99:99	99:99:99
999999	874			Olivier DOMALLAIN	DNS | Non-partant	SEM	999999	999999	SARTROUVILLE	14:43:51	99:99:99	99:99:99	99:99:99	99:99:99	99:99:99	99:99:99
999999	877			Herve LHERISSON	DNS | Non-partant	SEM	999999	999999	LE POIRE SUR VIE VENDEE TRIATHLON	14:43:51	99:99:99	99:99:99	99:99:99	99:99:99	99:99:99	99:99:99
999999	887			Sophie SOTO BARRERE	DNS | Non-partant	SEF	999999	999999	SOUBESTRE TRIATHLON	14:43:51	99:99:99	99:99:99	99:99:99	99:99:99	99:99:99	99:99:99
999999	888			Laurent BRICCO	STA | Partant en course	SEM	999999	999999	PARIS	14:43:51	00:38:17	01:41:34	99:99:99	00:38:17	01:41:34	99:99:99
999999	908			Cyril ALBERT	DNS | Non-partant	SEM	999999	999999	ADIDAS |	14:43:51	99:99:99	99:99:99	99:99:99	99:99:99	99:99:99	99:99:99
999999	921			Geraldine LECLOU	DNS | Non-partant	SEF	999999	999999	POISSY TRI	14:43:51	99:99:99	99:99:99	99:99:99	99:99:99	99:99:99	99:99:99
999999	945			Denis HARRAN	DNS | Non-partant	VEM	999999	999999	VERSAILLES TRI	14:43:51	99:99:99	99:99:99	99:99:99	99:99:99	99:99:99	99:99:99
999999	947			Nicolas MAIRE	DNS | Non-partant	VEM	999999	999999	VERSAILLES TRI	14:43:51	99:99:99	99:99:99	99:99:99	99:99:99	99:99:99	99:99:99
999999	948			Jean Pierre MORIN	DNS | Non-partant	VEM	999999	999999	VERSAILLES TRI	14:43:51	99:99:99	99:99:99	99:99:99	99:99:99	99:99:99	99:99:99
999999	956			Fabien PLATTEAU	DNS | Non-partant	VEM	999999	999999	FONTENAY TRI CLUB	14:43:51	99:99:99	99:99:99	99:99:99	99:99:99	99:99:99	99:99:99
999999	963			Sylvie PERROCHEAU	STA | Partant en course	VEF	999999	999999	LA ROCHE VENDEE TRI	14:43:51	00:45:40	01:31:49	99:99:99	00:45:40	01:31:49	99:99:99
999999	973			Julien MIAU	DNS | Non-partant	VEM	999999	999999	ST JEAN DE MONTS VENDEE TRI ATHLETISME	14:43:51	99:99:99	99:99:99	99:99:99	99:99:99	99:99:99	99:99:99
999999	976			Richard FLANDIN	DNS | Non-partant	SEM	999999	999999	STADE POITEVIN TRI	14:43:51	99:99:99	99:99:99	99:99:99	99:99:99	99:99:99	99:99:99
999999	979			Cedric MOREAU	DNS | Non-partant	SEM	999999	999999	STADE POITEVIN TRI	14:43:51	99:99:99	99:99:99	99:99:99	99:99:99	99:99:99	99:99:99
999999	982			Etienne DUPUIS	DNS | Non-partant	VEM	999999	999999	CLUB YERROIS DE TRI 91	14:43:51	99:99:99	99:99:99	99:99:99	99:99:99	99:99:99	99:99:99
999999	987			Lydie HUMERY	DNS | Non-partant	SEF	999999	999999	CLUB YERROIS DE TRI 91	14:43:51	99:99:99	99:99:99	99:99:99	99:99:99	99:99:99	99:99:99
999999	993			Benedicte RAMET	STA | Partant en course	SEF	999999	999999	CLUB YERROIS DE TRI 91	14:43:51	00:38:36	01:18:28	99:99:99	00:38:36	01:18:28	99:99:99
999999	998			Olivier HUCHULSKI	STA | Partant en course	VEM	999999	999999	MULSANNE	14:43:51	00:37:42	01:31:03	99:99:99	00:37:42	01:31:03	99:99:99
999999	1005			Guillaume MARY	STA | Partant en course	SEM	999999	999999	USA TRIATHLON	14:43:51	00:35:30	99:99:99	99:99:99	00:35:30	99:99:99	99:99:99
999999	1027			William REY	DNS | Non-partant	SEM	999999	999999	ASPTT ANGERS	14:43:51	99:99:99	99:99:99	99:99:99	99:99:99	99:99:99	99:99:99
999999	1028			Cyrille TUFFIN	DNS | Non-partant	SEM	999999	999999	POISSY TRI	14:43:51	99:99:99	99:99:99	99:99:99	99:99:99	99:99:99	99:99:99
999999	1031			Brice DAUBORD	DNS | Non-partant	SEM	999999	999999	ST JEAN DE MONTS VENDEE TRI ATHLETISME	14:43:51	99:99:99	99:99:99	99:99:99	99:99:99	99:99:99	99:99:99
999999	1032			Mathilde GAUTIER	STA | Partant en course	SEF	999999	999999	AS LIBOURNE TRI	14:43:51	00:27:41	01:08:56	99:99:99	00:27:41	01:08:56	99:99:99
999999	1099			Nicolas LANGLOIS	DNS | Non-partant	VEM	999999	999999	TRI ATLANTIQUE CARQUEFOU	14:43:51	99:99:99	99:99:99	99:99:99	99:99:99	99:99:99	99:99:99
